
BUZZER.elf:     file format elf32-avr

Sections:
Idx Name          Size      VMA       LMA       File off  Algn
  0 .data         0000001c  00800100  00000f1a  00000fae  2**0
                  CONTENTS, ALLOC, LOAD, DATA
  1 .text         00000f1a  00000000  00000000  00000094  2**1
                  CONTENTS, ALLOC, LOAD, READONLY, CODE
  2 .bss          00000008  0080011c  0080011c  00000fca  2**0
                  ALLOC
  3 .debug_aranges 00000020  00000000  00000000  00000fca  2**0
                  CONTENTS, READONLY, DEBUGGING
  4 .debug_pubnames 000000b2  00000000  00000000  00000fea  2**0
                  CONTENTS, READONLY, DEBUGGING
  5 .debug_info   0000019a  00000000  00000000  0000109c  2**0
                  CONTENTS, READONLY, DEBUGGING
  6 .debug_abbrev 000000be  00000000  00000000  00001236  2**0
                  CONTENTS, READONLY, DEBUGGING
  7 .debug_line   0000032d  00000000  00000000  000012f4  2**0
                  CONTENTS, READONLY, DEBUGGING
  8 .debug_frame  00000080  00000000  00000000  00001624  2**2
                  CONTENTS, READONLY, DEBUGGING
  9 .debug_str    000000da  00000000  00000000  000016a4  2**0
                  CONTENTS, READONLY, DEBUGGING

Disassembly of section .text:

00000000 <__vectors>:
   0:	0c 94 75 00 	jmp	0xea	; 0xea <__ctors_end>
   4:	0c 94 ad 02 	jmp	0x55a	; 0x55a <__vector_1>
   8:	0c 94 e1 02 	jmp	0x5c2	; 0x5c2 <__vector_2>
   c:	0c 94 92 00 	jmp	0x124	; 0x124 <__bad_interrupt>
  10:	0c 94 92 00 	jmp	0x124	; 0x124 <__bad_interrupt>
  14:	0c 94 92 00 	jmp	0x124	; 0x124 <__bad_interrupt>
  18:	0c 94 92 00 	jmp	0x124	; 0x124 <__bad_interrupt>
  1c:	0c 94 92 00 	jmp	0x124	; 0x124 <__bad_interrupt>
  20:	0c 94 92 00 	jmp	0x124	; 0x124 <__bad_interrupt>
  24:	0c 94 92 00 	jmp	0x124	; 0x124 <__bad_interrupt>
  28:	0c 94 92 00 	jmp	0x124	; 0x124 <__bad_interrupt>
  2c:	0c 94 92 00 	jmp	0x124	; 0x124 <__bad_interrupt>
  30:	0c 94 92 00 	jmp	0x124	; 0x124 <__bad_interrupt>
  34:	0c 94 92 00 	jmp	0x124	; 0x124 <__bad_interrupt>
  38:	0c 94 92 00 	jmp	0x124	; 0x124 <__bad_interrupt>
  3c:	0c 94 92 00 	jmp	0x124	; 0x124 <__bad_interrupt>
  40:	0c 94 92 00 	jmp	0x124	; 0x124 <__bad_interrupt>
  44:	0c 94 92 00 	jmp	0x124	; 0x124 <__bad_interrupt>
  48:	0c 94 92 00 	jmp	0x124	; 0x124 <__bad_interrupt>
  4c:	0c 94 92 00 	jmp	0x124	; 0x124 <__bad_interrupt>
  50:	0c 94 92 00 	jmp	0x124	; 0x124 <__bad_interrupt>
  54:	0c 94 92 00 	jmp	0x124	; 0x124 <__bad_interrupt>
  58:	0c 94 92 00 	jmp	0x124	; 0x124 <__bad_interrupt>
  5c:	0c 94 92 00 	jmp	0x124	; 0x124 <__bad_interrupt>
  60:	0c 94 92 00 	jmp	0x124	; 0x124 <__bad_interrupt>
  64:	0c 94 92 00 	jmp	0x124	; 0x124 <__bad_interrupt>
  68:	07 63       	ori	r16, 0x37	; 55
  6a:	42 36       	cpi	r20, 0x62	; 98
  6c:	b7 9b       	sbis	0x16, 7	; 22
  6e:	d8 a7       	std	Y+40, r29	; 0x28
  70:	1a 39       	cpi	r17, 0x9A	; 154
  72:	68 56       	subi	r22, 0x68	; 104
  74:	18 ae       	std	Y+56, r1	; 0x38
  76:	ba ab       	std	Y+50, r27	; 0x32
  78:	55 8c       	ldd	r5, Z+29	; 0x1d
  7a:	1d 3c       	cpi	r17, 0xCD	; 205
  7c:	b7 cc       	rjmp	.-1682   	; 0xfffff9ec <__eeprom_end+0xff7ef9ec>
  7e:	57 63       	ori	r21, 0x37	; 55
  80:	bd 6d       	ori	r27, 0xDD	; 221
  82:	ed fd       	.word	0xfded	; ????
  84:	75 3e       	cpi	r23, 0xE5	; 229
  86:	f6 17       	cp	r31, r22
  88:	72 31       	cpi	r23, 0x12	; 18
  8a:	bf 00       	.word	0x00bf	; ????
  8c:	00 00       	nop
  8e:	80 3f       	cpi	r24, 0xF0	; 240
  90:	08 00       	.word	0x0008	; ????
  92:	00 00       	nop
  94:	be 92       	st	-X, r11
  96:	24 49       	sbci	r18, 0x94	; 148
  98:	12 3e       	cpi	r17, 0xE2	; 226
  9a:	ab aa       	std	Y+51, r10	; 0x33
  9c:	aa 2a       	or	r10, r26
  9e:	be cd       	rjmp	.-1156   	; 0xfffffc1c <__eeprom_end+0xff7efc1c>
  a0:	cc cc       	rjmp	.-1640   	; 0xfffffa3a <__eeprom_end+0xff7efa3a>
  a2:	4c 3e       	cpi	r20, 0xEC	; 236
  a4:	00 00       	nop
  a6:	00 80       	ld	r0, Z
  a8:	be ab       	std	Y+54, r27	; 0x36
  aa:	aa aa       	std	Y+50, r10	; 0x32
  ac:	aa 3e       	cpi	r26, 0xEA	; 234
  ae:	00 00       	nop
  b0:	00 00       	nop
  b2:	bf 00       	.word	0x00bf	; ????
  b4:	00 00       	nop
  b6:	80 3f       	cpi	r24, 0xF0	; 240
  b8:	00 00       	nop
  ba:	00 00       	nop
  bc:	00 08       	sbc	r0, r0
  be:	41 78       	andi	r20, 0x81	; 129
  c0:	d3 bb       	out	0x13, r29	; 19
  c2:	43 87       	std	Z+11, r20	; 0x0b
  c4:	d1 13       	cpse	r29, r17
  c6:	3d 19       	sub	r19, r13
  c8:	0e 3c       	cpi	r16, 0xCE	; 206
  ca:	c3 bd       	out	0x23, r28	; 35
  cc:	42 82       	std	Z+2, r4	; 0x02
  ce:	ad 2b       	or	r26, r29
  d0:	3e 68       	ori	r19, 0x8E	; 142
  d2:	ec 82       	std	Y+4, r14	; 0x04
  d4:	76 be       	out	0x36, r7	; 54
  d6:	d9 8f       	std	Y+25, r29	; 0x19
  d8:	e1 a9       	ldd	r30, Z+49	; 0x31
  da:	3e 4c       	sbci	r19, 0xCE	; 206
  dc:	80 ef       	ldi	r24, 0xF0	; 240
  de:	ff be       	out	0x3f, r15	; 63
  e0:	01 c4       	rjmp	.+2050   	; 0x8e4 <__addsf3x+0x96>
  e2:	ff 7f       	andi	r31, 0xFF	; 255
  e4:	3f 00       	.word	0x003f	; ????
  e6:	00 00       	nop
	...

000000ea <__ctors_end>:
  ea:	11 24       	eor	r1, r1
  ec:	1f be       	out	0x3f, r1	; 63
  ee:	cf ef       	ldi	r28, 0xFF	; 255
  f0:	d8 e0       	ldi	r29, 0x08	; 8
  f2:	de bf       	out	0x3e, r29	; 62
  f4:	cd bf       	out	0x3d, r28	; 61

000000f6 <__do_copy_data>:
  f6:	11 e0       	ldi	r17, 0x01	; 1
  f8:	a0 e0       	ldi	r26, 0x00	; 0
  fa:	b1 e0       	ldi	r27, 0x01	; 1
  fc:	ea e1       	ldi	r30, 0x1A	; 26
  fe:	ff e0       	ldi	r31, 0x0F	; 15
 100:	02 c0       	rjmp	.+4      	; 0x106 <.do_copy_data_start>

00000102 <.do_copy_data_loop>:
 102:	05 90       	lpm	r0, Z+
 104:	0d 92       	st	X+, r0

00000106 <.do_copy_data_start>:
 106:	ac 31       	cpi	r26, 0x1C	; 28
 108:	b1 07       	cpc	r27, r17
 10a:	d9 f7       	brne	.-10     	; 0x102 <.do_copy_data_loop>

0000010c <__do_clear_bss>:
 10c:	11 e0       	ldi	r17, 0x01	; 1
 10e:	ac e1       	ldi	r26, 0x1C	; 28
 110:	b1 e0       	ldi	r27, 0x01	; 1
 112:	01 c0       	rjmp	.+2      	; 0x116 <.do_clear_bss_start>

00000114 <.do_clear_bss_loop>:
 114:	1d 92       	st	X+, r1

00000116 <.do_clear_bss_start>:
 116:	a4 32       	cpi	r26, 0x24	; 36
 118:	b1 07       	cpc	r27, r17
 11a:	e1 f7       	brne	.-8      	; 0x114 <.do_clear_bss_loop>
 11c:	0e 94 15 03 	call	0x62a	; 0x62a <main>
 120:	0c 94 12 04 	jmp	0x824	; 0x824 <exit>

00000124 <__bad_interrupt>:
 124:	0c 94 00 00 	jmp	0	; 0x0 <__vectors>

00000128 <play>:
int on_offdown = 0;
int note = 0;
int flag = 0;

void play(signed int y)
{
 128:	cf 92       	push	r12
 12a:	df 92       	push	r13
 12c:	ef 92       	push	r14
 12e:	ff 92       	push	r15
 130:	0f 93       	push	r16
 132:	1f 93       	push	r17
 134:	df 93       	push	r29
 136:	cf 93       	push	r28
 138:	00 d0       	rcall	.+0      	; 0x13a <play+0x12>
 13a:	cd b7       	in	r28, 0x3d	; 61
 13c:	de b7       	in	r29, 0x3e	; 62
 13e:	9a 83       	std	Y+2, r25	; 0x02
 140:	89 83       	std	Y+1, r24	; 0x01
	DDRB |= 0x02;
 142:	a4 e2       	ldi	r26, 0x24	; 36
 144:	b0 e0       	ldi	r27, 0x00	; 0
 146:	e4 e2       	ldi	r30, 0x24	; 36
 148:	f0 e0       	ldi	r31, 0x00	; 0
 14a:	80 81       	ld	r24, Z
 14c:	82 60       	ori	r24, 0x02	; 2
 14e:	8c 93       	st	X, r24
	TCCR1A |= 0x40;
 150:	a0 e8       	ldi	r26, 0x80	; 128
 152:	b0 e0       	ldi	r27, 0x00	; 0
 154:	e0 e8       	ldi	r30, 0x80	; 128
 156:	f0 e0       	ldi	r31, 0x00	; 0
 158:	80 81       	ld	r24, Z
 15a:	80 64       	ori	r24, 0x40	; 64
 15c:	8c 93       	st	X, r24
	TCCR1B |= 0x1A;
 15e:	a1 e8       	ldi	r26, 0x81	; 129
 160:	b0 e0       	ldi	r27, 0x00	; 0
 162:	e1 e8       	ldi	r30, 0x81	; 129
 164:	f0 e0       	ldi	r31, 0x00	; 0
 166:	80 81       	ld	r24, Z
 168:	8a 61       	ori	r24, 0x1A	; 26
 16a:	8c 93       	st	X, r24
	if(y<0)
 16c:	89 81       	ldd	r24, Y+1	; 0x01
 16e:	9a 81       	ldd	r25, Y+2	; 0x02
 170:	99 23       	and	r25, r25
 172:	0c f0       	brlt	.+2      	; 0x176 <play+0x4e>
 174:	6e c0       	rjmp	.+220    	; 0x252 <play+0x12a>
	{
		ICR1 = FREQ(note_freqmin[-y%7]*pow(0.5,-y/7+1));
 176:	0f 2e       	mov	r0, r31
 178:	f6 e8       	ldi	r31, 0x86	; 134
 17a:	cf 2e       	mov	r12, r31
 17c:	dd 24       	eor	r13, r13
 17e:	f0 2d       	mov	r31, r0
 180:	89 81       	ldd	r24, Y+1	; 0x01
 182:	9a 81       	ldd	r25, Y+2	; 0x02
 184:	90 95       	com	r25
 186:	81 95       	neg	r24
 188:	9f 4f       	sbci	r25, 0xFF	; 255
 18a:	27 e0       	ldi	r18, 0x07	; 7
 18c:	30 e0       	ldi	r19, 0x00	; 0
 18e:	b9 01       	movw	r22, r18
 190:	0e 94 64 07 	call	0xec8	; 0xec8 <__divmodhi4>
 194:	88 0f       	add	r24, r24
 196:	99 1f       	adc	r25, r25
 198:	fc 01       	movw	r30, r24
 19a:	e2 5f       	subi	r30, 0xF2	; 242
 19c:	fe 4f       	sbci	r31, 0xFE	; 254
 19e:	80 81       	ld	r24, Z
 1a0:	91 81       	ldd	r25, Z+1	; 0x01
 1a2:	aa 27       	eor	r26, r26
 1a4:	97 fd       	sbrc	r25, 7
 1a6:	a0 95       	com	r26
 1a8:	ba 2f       	mov	r27, r26
 1aa:	bc 01       	movw	r22, r24
 1ac:	cd 01       	movw	r24, r26
 1ae:	0e 94 10 05 	call	0xa20	; 0xa20 <__floatsisf>
 1b2:	7b 01       	movw	r14, r22
 1b4:	8c 01       	movw	r16, r24
 1b6:	89 81       	ldd	r24, Y+1	; 0x01
 1b8:	9a 81       	ldd	r25, Y+2	; 0x02
 1ba:	90 95       	com	r25
 1bc:	81 95       	neg	r24
 1be:	9f 4f       	sbci	r25, 0xFF	; 255
 1c0:	27 e0       	ldi	r18, 0x07	; 7
 1c2:	30 e0       	ldi	r19, 0x00	; 0
 1c4:	b9 01       	movw	r22, r18
 1c6:	0e 94 64 07 	call	0xec8	; 0xec8 <__divmodhi4>
 1ca:	cb 01       	movw	r24, r22
 1cc:	01 96       	adiw	r24, 0x01	; 1
 1ce:	aa 27       	eor	r26, r26
 1d0:	97 fd       	sbrc	r25, 7
 1d2:	a0 95       	com	r26
 1d4:	ba 2f       	mov	r27, r26
 1d6:	bc 01       	movw	r22, r24
 1d8:	cd 01       	movw	r24, r26
 1da:	0e 94 10 05 	call	0xa20	; 0xa20 <__floatsisf>
 1de:	9b 01       	movw	r18, r22
 1e0:	ac 01       	movw	r20, r24
 1e2:	60 e0       	ldi	r22, 0x00	; 0
 1e4:	70 e0       	ldi	r23, 0x00	; 0
 1e6:	80 e0       	ldi	r24, 0x00	; 0
 1e8:	9f e3       	ldi	r25, 0x3F	; 63
 1ea:	0e 94 ff 05 	call	0xbfe	; 0xbfe <pow>
 1ee:	dc 01       	movw	r26, r24
 1f0:	cb 01       	movw	r24, r22
 1f2:	9c 01       	movw	r18, r24
 1f4:	ad 01       	movw	r20, r26
 1f6:	c8 01       	movw	r24, r16
 1f8:	b7 01       	movw	r22, r14
 1fa:	0e 94 9c 05 	call	0xb38	; 0xb38 <__mulsf3>
 1fe:	dc 01       	movw	r26, r24
 200:	cb 01       	movw	r24, r22
 202:	bc 01       	movw	r22, r24
 204:	cd 01       	movw	r24, r26
 206:	20 e0       	ldi	r18, 0x00	; 0
 208:	30 e0       	ldi	r19, 0x00	; 0
 20a:	40 e8       	ldi	r20, 0x80	; 128
 20c:	5f e3       	ldi	r21, 0x3F	; 63
 20e:	0e 94 16 04 	call	0x82c	; 0x82c <__addsf3>
 212:	dc 01       	movw	r26, r24
 214:	cb 01       	movw	r24, r22
 216:	bc 01       	movw	r22, r24
 218:	cd 01       	movw	r24, r26
 21a:	20 e0       	ldi	r18, 0x00	; 0
 21c:	30 e0       	ldi	r19, 0x00	; 0
 21e:	40 e8       	ldi	r20, 0x80	; 128
 220:	51 e4       	ldi	r21, 0x41	; 65
 222:	0e 94 9c 05 	call	0xb38	; 0xb38 <__mulsf3>
 226:	dc 01       	movw	r26, r24
 228:	cb 01       	movw	r24, r22
 22a:	9c 01       	movw	r18, r24
 22c:	ad 01       	movw	r20, r26
 22e:	60 e0       	ldi	r22, 0x00	; 0
 230:	74 e2       	ldi	r23, 0x24	; 36
 232:	84 e7       	ldi	r24, 0x74	; 116
 234:	9b e4       	ldi	r25, 0x4B	; 75
 236:	0e 94 7a 04 	call	0x8f4	; 0x8f4 <__divsf3>
 23a:	dc 01       	movw	r26, r24
 23c:	cb 01       	movw	r24, r22
 23e:	bc 01       	movw	r22, r24
 240:	cd 01       	movw	r24, r26
 242:	0e 94 e2 04 	call	0x9c4	; 0x9c4 <__fixunssfsi>
 246:	dc 01       	movw	r26, r24
 248:	cb 01       	movw	r24, r22
 24a:	f6 01       	movw	r30, r12
 24c:	91 83       	std	Z+1, r25	; 0x01
 24e:	80 83       	st	Z, r24
 250:	64 c0       	rjmp	.+200    	; 0x31a <play+0x1f2>
	}
	else
	{
		ICR1 = FREQ(note_freq[y%7]*pow(2,(y/7)));
 252:	0f 2e       	mov	r0, r31
 254:	f6 e8       	ldi	r31, 0x86	; 134
 256:	cf 2e       	mov	r12, r31
 258:	dd 24       	eor	r13, r13
 25a:	f0 2d       	mov	r31, r0
 25c:	89 81       	ldd	r24, Y+1	; 0x01
 25e:	9a 81       	ldd	r25, Y+2	; 0x02
 260:	27 e0       	ldi	r18, 0x07	; 7
 262:	30 e0       	ldi	r19, 0x00	; 0
 264:	b9 01       	movw	r22, r18
 266:	0e 94 64 07 	call	0xec8	; 0xec8 <__divmodhi4>
 26a:	88 0f       	add	r24, r24
 26c:	99 1f       	adc	r25, r25
 26e:	fc 01       	movw	r30, r24
 270:	e0 50       	subi	r30, 0x00	; 0
 272:	ff 4f       	sbci	r31, 0xFF	; 255
 274:	80 81       	ld	r24, Z
 276:	91 81       	ldd	r25, Z+1	; 0x01
 278:	aa 27       	eor	r26, r26
 27a:	97 fd       	sbrc	r25, 7
 27c:	a0 95       	com	r26
 27e:	ba 2f       	mov	r27, r26
 280:	bc 01       	movw	r22, r24
 282:	cd 01       	movw	r24, r26
 284:	0e 94 10 05 	call	0xa20	; 0xa20 <__floatsisf>
 288:	7b 01       	movw	r14, r22
 28a:	8c 01       	movw	r16, r24
 28c:	89 81       	ldd	r24, Y+1	; 0x01
 28e:	9a 81       	ldd	r25, Y+2	; 0x02
 290:	27 e0       	ldi	r18, 0x07	; 7
 292:	30 e0       	ldi	r19, 0x00	; 0
 294:	b9 01       	movw	r22, r18
 296:	0e 94 64 07 	call	0xec8	; 0xec8 <__divmodhi4>
 29a:	cb 01       	movw	r24, r22
 29c:	aa 27       	eor	r26, r26
 29e:	97 fd       	sbrc	r25, 7
 2a0:	a0 95       	com	r26
 2a2:	ba 2f       	mov	r27, r26
 2a4:	bc 01       	movw	r22, r24
 2a6:	cd 01       	movw	r24, r26
 2a8:	0e 94 10 05 	call	0xa20	; 0xa20 <__floatsisf>
 2ac:	9b 01       	movw	r18, r22
 2ae:	ac 01       	movw	r20, r24
 2b0:	60 e0       	ldi	r22, 0x00	; 0
 2b2:	70 e0       	ldi	r23, 0x00	; 0
 2b4:	80 e0       	ldi	r24, 0x00	; 0
 2b6:	90 e4       	ldi	r25, 0x40	; 64
 2b8:	0e 94 ff 05 	call	0xbfe	; 0xbfe <pow>
 2bc:	9b 01       	movw	r18, r22
 2be:	ac 01       	movw	r20, r24
 2c0:	c8 01       	movw	r24, r16
 2c2:	b7 01       	movw	r22, r14
 2c4:	0e 94 9c 05 	call	0xb38	; 0xb38 <__mulsf3>
 2c8:	dc 01       	movw	r26, r24
 2ca:	cb 01       	movw	r24, r22
 2cc:	bc 01       	movw	r22, r24
 2ce:	cd 01       	movw	r24, r26
 2d0:	20 e0       	ldi	r18, 0x00	; 0
 2d2:	30 e0       	ldi	r19, 0x00	; 0
 2d4:	40 e8       	ldi	r20, 0x80	; 128
 2d6:	5f e3       	ldi	r21, 0x3F	; 63
 2d8:	0e 94 16 04 	call	0x82c	; 0x82c <__addsf3>
 2dc:	dc 01       	movw	r26, r24
 2de:	cb 01       	movw	r24, r22
 2e0:	bc 01       	movw	r22, r24
 2e2:	cd 01       	movw	r24, r26
 2e4:	20 e0       	ldi	r18, 0x00	; 0
 2e6:	30 e0       	ldi	r19, 0x00	; 0
 2e8:	40 e8       	ldi	r20, 0x80	; 128
 2ea:	51 e4       	ldi	r21, 0x41	; 65
 2ec:	0e 94 9c 05 	call	0xb38	; 0xb38 <__mulsf3>
 2f0:	dc 01       	movw	r26, r24
 2f2:	cb 01       	movw	r24, r22
 2f4:	9c 01       	movw	r18, r24
 2f6:	ad 01       	movw	r20, r26
 2f8:	60 e0       	ldi	r22, 0x00	; 0
 2fa:	74 e2       	ldi	r23, 0x24	; 36
 2fc:	84 e7       	ldi	r24, 0x74	; 116
 2fe:	9b e4       	ldi	r25, 0x4B	; 75
 300:	0e 94 7a 04 	call	0x8f4	; 0x8f4 <__divsf3>
 304:	dc 01       	movw	r26, r24
 306:	cb 01       	movw	r24, r22
 308:	bc 01       	movw	r22, r24
 30a:	cd 01       	movw	r24, r26
 30c:	0e 94 e2 04 	call	0x9c4	; 0x9c4 <__fixunssfsi>
 310:	dc 01       	movw	r26, r24
 312:	cb 01       	movw	r24, r22
 314:	f6 01       	movw	r30, r12
 316:	91 83       	std	Z+1, r25	; 0x01
 318:	80 83       	st	Z, r24
	}
}
 31a:	0f 90       	pop	r0
 31c:	0f 90       	pop	r0
 31e:	cf 91       	pop	r28
 320:	df 91       	pop	r29
 322:	1f 91       	pop	r17
 324:	0f 91       	pop	r16
 326:	ff 90       	pop	r15
 328:	ef 90       	pop	r14
 32a:	df 90       	pop	r13
 32c:	cf 90       	pop	r12
 32e:	08 95       	ret

00000330 <stop>:

void stop(void)
{
 330:	df 93       	push	r29
 332:	cf 93       	push	r28
 334:	cd b7       	in	r28, 0x3d	; 61
 336:	de b7       	in	r29, 0x3e	; 62
	TCCR1A |= 0x00;
 338:	a0 e8       	ldi	r26, 0x80	; 128
 33a:	b0 e0       	ldi	r27, 0x00	; 0
 33c:	e0 e8       	ldi	r30, 0x80	; 128
 33e:	f0 e0       	ldi	r31, 0x00	; 0
 340:	80 81       	ld	r24, Z
 342:	8c 93       	st	X, r24
	TCCR1B |= 0x00;
 344:	a1 e8       	ldi	r26, 0x81	; 129
 346:	b0 e0       	ldi	r27, 0x00	; 0
 348:	e1 e8       	ldi	r30, 0x81	; 129
 34a:	f0 e0       	ldi	r31, 0x00	; 0
 34c:	80 81       	ld	r24, Z
 34e:	8c 93       	st	X, r24
	TCNT1 = 0;
 350:	e4 e8       	ldi	r30, 0x84	; 132
 352:	f0 e0       	ldi	r31, 0x00	; 0
 354:	11 82       	std	Z+1, r1	; 0x01
 356:	10 82       	st	Z, r1
	ICR1 = 0;
 358:	e6 e8       	ldi	r30, 0x86	; 134
 35a:	f0 e0       	ldi	r31, 0x00	; 0
 35c:	11 82       	std	Z+1, r1	; 0x01
 35e:	10 82       	st	Z, r1
	DDRB = ~0x02;
 360:	e4 e2       	ldi	r30, 0x24	; 36
 362:	f0 e0       	ldi	r31, 0x00	; 0
 364:	8d ef       	ldi	r24, 0xFD	; 253
 366:	80 83       	st	Z, r24
}
 368:	cf 91       	pop	r28
 36a:	df 91       	pop	r29
 36c:	08 95       	ret

0000036e <LED_OFF>:

void LED_OFF(void)
{
 36e:	df 93       	push	r29
 370:	cf 93       	push	r28
 372:	cd b7       	in	r28, 0x3d	; 61
 374:	de b7       	in	r29, 0x3e	; 62
	PORTC = 0xFF;
 376:	e8 e2       	ldi	r30, 0x28	; 40
 378:	f0 e0       	ldi	r31, 0x00	; 0
 37a:	8f ef       	ldi	r24, 0xFF	; 255
 37c:	80 83       	st	Z, r24
	PORTB = 0xFD;
 37e:	e5 e2       	ldi	r30, 0x25	; 37
 380:	f0 e0       	ldi	r31, 0x00	; 0
 382:	8d ef       	ldi	r24, 0xFD	; 253
 384:	80 83       	st	Z, r24
}
 386:	cf 91       	pop	r28
 388:	df 91       	pop	r29
 38a:	08 95       	ret

0000038c <LED_SHIFT>:

void LED_SHIFT(void)
{
 38c:	0f 93       	push	r16
 38e:	1f 93       	push	r17
 390:	df 93       	push	r29
 392:	cf 93       	push	r28
 394:	00 d0       	rcall	.+0      	; 0x396 <LED_SHIFT+0xa>
 396:	cd b7       	in	r28, 0x3d	; 61
 398:	de b7       	in	r29, 0x3e	; 62
	if(note < 0)
 39a:	80 91 20 01 	lds	r24, 0x0120
 39e:	90 91 21 01 	lds	r25, 0x0121
 3a2:	99 23       	and	r25, r25
 3a4:	0c f0       	brlt	.+2      	; 0x3a8 <LED_SHIFT+0x1c>
 3a6:	73 c0       	rjmp	.+230    	; 0x48e <LED_SHIFT+0x102>
	{
		int notemin = note+(7*((-note/7)+1));
 3a8:	80 91 20 01 	lds	r24, 0x0120
 3ac:	90 91 21 01 	lds	r25, 0x0121
 3b0:	90 95       	com	r25
 3b2:	81 95       	neg	r24
 3b4:	9f 4f       	sbci	r25, 0xFF	; 255
 3b6:	27 e0       	ldi	r18, 0x07	; 7
 3b8:	30 e0       	ldi	r19, 0x00	; 0
 3ba:	b9 01       	movw	r22, r18
 3bc:	0e 94 64 07 	call	0xec8	; 0xec8 <__divmodhi4>
 3c0:	cb 01       	movw	r24, r22
 3c2:	9c 01       	movw	r18, r24
 3c4:	2f 5f       	subi	r18, 0xFF	; 255
 3c6:	3f 4f       	sbci	r19, 0xFF	; 255
 3c8:	c9 01       	movw	r24, r18
 3ca:	88 0f       	add	r24, r24
 3cc:	99 1f       	adc	r25, r25
 3ce:	88 0f       	add	r24, r24
 3d0:	99 1f       	adc	r25, r25
 3d2:	88 0f       	add	r24, r24
 3d4:	99 1f       	adc	r25, r25
 3d6:	ac 01       	movw	r20, r24
 3d8:	42 1b       	sub	r20, r18
 3da:	53 0b       	sbc	r21, r19
 3dc:	9a 01       	movw	r18, r20
 3de:	80 91 20 01 	lds	r24, 0x0120
 3e2:	90 91 21 01 	lds	r25, 0x0121
 3e6:	82 0f       	add	r24, r18
 3e8:	93 1f       	adc	r25, r19
 3ea:	9a 83       	std	Y+2, r25	; 0x02
 3ec:	89 83       	std	Y+1, r24	; 0x01
		if(notemin%7 < 4)
 3ee:	89 81       	ldd	r24, Y+1	; 0x01
 3f0:	9a 81       	ldd	r25, Y+2	; 0x02
 3f2:	27 e0       	ldi	r18, 0x07	; 7
 3f4:	30 e0       	ldi	r19, 0x00	; 0
 3f6:	b9 01       	movw	r22, r18
 3f8:	0e 94 64 07 	call	0xec8	; 0xec8 <__divmodhi4>
 3fc:	84 30       	cpi	r24, 0x04	; 4
 3fe:	91 05       	cpc	r25, r1
 400:	04 f5       	brge	.+64     	; 0x442 <LED_SHIFT+0xb6>
		{
   			PORTB = (PORTB|0x3C) & ~(0x04 << (notemin%7));
 402:	05 e2       	ldi	r16, 0x25	; 37
 404:	10 e0       	ldi	r17, 0x00	; 0
 406:	e5 e2       	ldi	r30, 0x25	; 37
 408:	f0 e0       	ldi	r31, 0x00	; 0
 40a:	80 81       	ld	r24, Z
 40c:	8c 63       	ori	r24, 0x3C	; 60
 40e:	48 2f       	mov	r20, r24
 410:	89 81       	ldd	r24, Y+1	; 0x01
 412:	9a 81       	ldd	r25, Y+2	; 0x02
 414:	27 e0       	ldi	r18, 0x07	; 7
 416:	30 e0       	ldi	r19, 0x00	; 0
 418:	b9 01       	movw	r22, r18
 41a:	0e 94 64 07 	call	0xec8	; 0xec8 <__divmodhi4>
 41e:	9c 01       	movw	r18, r24
 420:	84 e0       	ldi	r24, 0x04	; 4
 422:	90 e0       	ldi	r25, 0x00	; 0
 424:	02 2e       	mov	r0, r18
 426:	02 c0       	rjmp	.+4      	; 0x42c <LED_SHIFT+0xa0>
 428:	88 0f       	add	r24, r24
 42a:	99 1f       	adc	r25, r25
 42c:	0a 94       	dec	r0
 42e:	e2 f7       	brpl	.-8      	; 0x428 <LED_SHIFT+0x9c>
 430:	80 95       	com	r24
 432:	84 23       	and	r24, r20
 434:	f8 01       	movw	r30, r16
 436:	80 83       	st	Z, r24
			PORTC = 0x0F;
 438:	e8 e2       	ldi	r30, 0x28	; 40
 43a:	f0 e0       	ldi	r31, 0x00	; 0
 43c:	8f e0       	ldi	r24, 0x0F	; 15
 43e:	80 83       	st	Z, r24
 440:	26 c0       	rjmp	.+76     	; 0x48e <LED_SHIFT+0x102>
 		}
		else if(notemin%7 > 3)
 442:	89 81       	ldd	r24, Y+1	; 0x01
 444:	9a 81       	ldd	r25, Y+2	; 0x02
 446:	27 e0       	ldi	r18, 0x07	; 7
 448:	30 e0       	ldi	r19, 0x00	; 0
 44a:	b9 01       	movw	r22, r18
 44c:	0e 94 64 07 	call	0xec8	; 0xec8 <__divmodhi4>
 450:	84 30       	cpi	r24, 0x04	; 4
 452:	91 05       	cpc	r25, r1
 454:	e4 f0       	brlt	.+56     	; 0x48e <LED_SHIFT+0x102>
		{
			PORTB = PORTB|0x3C;
 456:	a5 e2       	ldi	r26, 0x25	; 37
 458:	b0 e0       	ldi	r27, 0x00	; 0
 45a:	e5 e2       	ldi	r30, 0x25	; 37
 45c:	f0 e0       	ldi	r31, 0x00	; 0
 45e:	80 81       	ld	r24, Z
 460:	8c 63       	ori	r24, 0x3C	; 60
 462:	8c 93       	st	X, r24
			PORTC = ~(0x01<<((notemin%7)-4));
 464:	e8 e2       	ldi	r30, 0x28	; 40
 466:	f0 e0       	ldi	r31, 0x00	; 0
 468:	89 81       	ldd	r24, Y+1	; 0x01
 46a:	9a 81       	ldd	r25, Y+2	; 0x02
 46c:	27 e0       	ldi	r18, 0x07	; 7
 46e:	30 e0       	ldi	r19, 0x00	; 0
 470:	b9 01       	movw	r22, r18
 472:	0e 94 64 07 	call	0xec8	; 0xec8 <__divmodhi4>
 476:	9c 01       	movw	r18, r24
 478:	24 50       	subi	r18, 0x04	; 4
 47a:	30 40       	sbci	r19, 0x00	; 0
 47c:	81 e0       	ldi	r24, 0x01	; 1
 47e:	90 e0       	ldi	r25, 0x00	; 0
 480:	02 c0       	rjmp	.+4      	; 0x486 <LED_SHIFT+0xfa>
 482:	88 0f       	add	r24, r24
 484:	99 1f       	adc	r25, r25
 486:	2a 95       	dec	r18
 488:	e2 f7       	brpl	.-8      	; 0x482 <LED_SHIFT+0xf6>
 48a:	80 95       	com	r24
 48c:	80 83       	st	Z, r24
		}
	}
	if(note%7 < 4 && note>=0)
 48e:	80 91 20 01 	lds	r24, 0x0120
 492:	90 91 21 01 	lds	r25, 0x0121
 496:	27 e0       	ldi	r18, 0x07	; 7
 498:	30 e0       	ldi	r19, 0x00	; 0
 49a:	b9 01       	movw	r22, r18
 49c:	0e 94 64 07 	call	0xec8	; 0xec8 <__divmodhi4>
 4a0:	84 30       	cpi	r24, 0x04	; 4
 4a2:	91 05       	cpc	r25, r1
 4a4:	44 f5       	brge	.+80     	; 0x4f6 <LED_SHIFT+0x16a>
 4a6:	80 91 20 01 	lds	r24, 0x0120
 4aa:	90 91 21 01 	lds	r25, 0x0121
 4ae:	99 23       	and	r25, r25
 4b0:	14 f1       	brlt	.+68     	; 0x4f6 <LED_SHIFT+0x16a>
	{
   		PORTB = (PORTB|0x3C) & ~(0x04 << (note%7));
 4b2:	05 e2       	ldi	r16, 0x25	; 37
 4b4:	10 e0       	ldi	r17, 0x00	; 0
 4b6:	e5 e2       	ldi	r30, 0x25	; 37
 4b8:	f0 e0       	ldi	r31, 0x00	; 0
 4ba:	80 81       	ld	r24, Z
 4bc:	8c 63       	ori	r24, 0x3C	; 60
 4be:	48 2f       	mov	r20, r24
 4c0:	80 91 20 01 	lds	r24, 0x0120
 4c4:	90 91 21 01 	lds	r25, 0x0121
 4c8:	27 e0       	ldi	r18, 0x07	; 7
 4ca:	30 e0       	ldi	r19, 0x00	; 0
 4cc:	b9 01       	movw	r22, r18
 4ce:	0e 94 64 07 	call	0xec8	; 0xec8 <__divmodhi4>
 4d2:	9c 01       	movw	r18, r24
 4d4:	84 e0       	ldi	r24, 0x04	; 4
 4d6:	90 e0       	ldi	r25, 0x00	; 0
 4d8:	02 2e       	mov	r0, r18
 4da:	02 c0       	rjmp	.+4      	; 0x4e0 <LED_SHIFT+0x154>
 4dc:	88 0f       	add	r24, r24
 4de:	99 1f       	adc	r25, r25
 4e0:	0a 94       	dec	r0
 4e2:	e2 f7       	brpl	.-8      	; 0x4dc <LED_SHIFT+0x150>
 4e4:	80 95       	com	r24
 4e6:	84 23       	and	r24, r20
 4e8:	f8 01       	movw	r30, r16
 4ea:	80 83       	st	Z, r24
		PORTC = 0x0F;
 4ec:	e8 e2       	ldi	r30, 0x28	; 40
 4ee:	f0 e0       	ldi	r31, 0x00	; 0
 4f0:	8f e0       	ldi	r24, 0x0F	; 15
 4f2:	80 83       	st	Z, r24
 4f4:	2b c0       	rjmp	.+86     	; 0x54c <LED_SHIFT+0x1c0>
 	}
	else if(note%7 > 3)
 4f6:	80 91 20 01 	lds	r24, 0x0120
 4fa:	90 91 21 01 	lds	r25, 0x0121
 4fe:	27 e0       	ldi	r18, 0x07	; 7
 500:	30 e0       	ldi	r19, 0x00	; 0
 502:	b9 01       	movw	r22, r18
 504:	0e 94 64 07 	call	0xec8	; 0xec8 <__divmodhi4>
 508:	84 30       	cpi	r24, 0x04	; 4
 50a:	91 05       	cpc	r25, r1
 50c:	fc f0       	brlt	.+62     	; 0x54c <LED_SHIFT+0x1c0>
	{
		PORTB = PORTB|0x3C;
 50e:	a5 e2       	ldi	r26, 0x25	; 37
 510:	b0 e0       	ldi	r27, 0x00	; 0
 512:	e5 e2       	ldi	r30, 0x25	; 37
 514:	f0 e0       	ldi	r31, 0x00	; 0
 516:	80 81       	ld	r24, Z
 518:	8c 63       	ori	r24, 0x3C	; 60
 51a:	8c 93       	st	X, r24
		PORTC = ~(0x01<<((note%7)-4));
 51c:	e8 e2       	ldi	r30, 0x28	; 40
 51e:	f0 e0       	ldi	r31, 0x00	; 0
 520:	80 91 20 01 	lds	r24, 0x0120
 524:	90 91 21 01 	lds	r25, 0x0121
 528:	27 e0       	ldi	r18, 0x07	; 7
 52a:	30 e0       	ldi	r19, 0x00	; 0
 52c:	b9 01       	movw	r22, r18
 52e:	0e 94 64 07 	call	0xec8	; 0xec8 <__divmodhi4>
 532:	9c 01       	movw	r18, r24
 534:	24 50       	subi	r18, 0x04	; 4
 536:	30 40       	sbci	r19, 0x00	; 0
 538:	81 e0       	ldi	r24, 0x01	; 1
 53a:	90 e0       	ldi	r25, 0x00	; 0
 53c:	02 2e       	mov	r0, r18
 53e:	02 c0       	rjmp	.+4      	; 0x544 <LED_SHIFT+0x1b8>
 540:	88 0f       	add	r24, r24
 542:	99 1f       	adc	r25, r25
 544:	0a 94       	dec	r0
 546:	e2 f7       	brpl	.-8      	; 0x540 <LED_SHIFT+0x1b4>
 548:	80 95       	com	r24
 54a:	80 83       	st	Z, r24
	}
}
 54c:	0f 90       	pop	r0
 54e:	0f 90       	pop	r0
 550:	cf 91       	pop	r28
 552:	df 91       	pop	r29
 554:	1f 91       	pop	r17
 556:	0f 91       	pop	r16
 558:	08 95       	ret

0000055a <__vector_1>:

ISR(INT0_vect)
{
 55a:	1f 92       	push	r1
 55c:	0f 92       	push	r0
 55e:	0f b6       	in	r0, 0x3f	; 63
 560:	0f 92       	push	r0
 562:	11 24       	eor	r1, r1
 564:	8f 93       	push	r24
 566:	9f 93       	push	r25
 568:	af 93       	push	r26
 56a:	bf 93       	push	r27
 56c:	ef 93       	push	r30
 56e:	ff 93       	push	r31
 570:	df 93       	push	r29
 572:	cf 93       	push	r28
 574:	cd b7       	in	r28, 0x3d	; 61
 576:	de b7       	in	r29, 0x3e	; 62
	cli();
 578:	f8 94       	cli
	on_offup = ON;
 57a:	81 e0       	ldi	r24, 0x01	; 1
 57c:	90 e0       	ldi	r25, 0x00	; 0
 57e:	90 93 1d 01 	sts	0x011D, r25
 582:	80 93 1c 01 	sts	0x011C, r24
	++note;
 586:	80 91 20 01 	lds	r24, 0x0120
 58a:	90 91 21 01 	lds	r25, 0x0121
 58e:	01 96       	adiw	r24, 0x01	; 1
 590:	90 93 21 01 	sts	0x0121, r25
 594:	80 93 20 01 	sts	0x0120, r24
	EIFR |= 0x01;
 598:	ac e3       	ldi	r26, 0x3C	; 60
 59a:	b0 e0       	ldi	r27, 0x00	; 0
 59c:	ec e3       	ldi	r30, 0x3C	; 60
 59e:	f0 e0       	ldi	r31, 0x00	; 0
 5a0:	80 81       	ld	r24, Z
 5a2:	81 60       	ori	r24, 0x01	; 1
 5a4:	8c 93       	st	X, r24
	sei();
 5a6:	78 94       	sei
}
 5a8:	cf 91       	pop	r28
 5aa:	df 91       	pop	r29
 5ac:	ff 91       	pop	r31
 5ae:	ef 91       	pop	r30
 5b0:	bf 91       	pop	r27
 5b2:	af 91       	pop	r26
 5b4:	9f 91       	pop	r25
 5b6:	8f 91       	pop	r24
 5b8:	0f 90       	pop	r0
 5ba:	0f be       	out	0x3f, r0	; 63
 5bc:	0f 90       	pop	r0
 5be:	1f 90       	pop	r1
 5c0:	18 95       	reti

000005c2 <__vector_2>:

ISR(INT1_vect)
{
 5c2:	1f 92       	push	r1
 5c4:	0f 92       	push	r0
 5c6:	0f b6       	in	r0, 0x3f	; 63
 5c8:	0f 92       	push	r0
 5ca:	11 24       	eor	r1, r1
 5cc:	8f 93       	push	r24
 5ce:	9f 93       	push	r25
 5d0:	af 93       	push	r26
 5d2:	bf 93       	push	r27
 5d4:	ef 93       	push	r30
 5d6:	ff 93       	push	r31
 5d8:	df 93       	push	r29
 5da:	cf 93       	push	r28
 5dc:	cd b7       	in	r28, 0x3d	; 61
 5de:	de b7       	in	r29, 0x3e	; 62
	cli();
 5e0:	f8 94       	cli
	on_offdown = ON;
 5e2:	81 e0       	ldi	r24, 0x01	; 1
 5e4:	90 e0       	ldi	r25, 0x00	; 0
 5e6:	90 93 1f 01 	sts	0x011F, r25
 5ea:	80 93 1e 01 	sts	0x011E, r24
	EIFR |= 0x02;
 5ee:	ac e3       	ldi	r26, 0x3C	; 60
 5f0:	b0 e0       	ldi	r27, 0x00	; 0
 5f2:	ec e3       	ldi	r30, 0x3C	; 60
 5f4:	f0 e0       	ldi	r31, 0x00	; 0
 5f6:	80 81       	ld	r24, Z
 5f8:	82 60       	ori	r24, 0x02	; 2
 5fa:	8c 93       	st	X, r24
	--note;
 5fc:	80 91 20 01 	lds	r24, 0x0120
 600:	90 91 21 01 	lds	r25, 0x0121
 604:	01 97       	sbiw	r24, 0x01	; 1
 606:	90 93 21 01 	sts	0x0121, r25
 60a:	80 93 20 01 	sts	0x0120, r24
	sei();
 60e:	78 94       	sei
}
 610:	cf 91       	pop	r28
 612:	df 91       	pop	r29
 614:	ff 91       	pop	r31
 616:	ef 91       	pop	r30
 618:	bf 91       	pop	r27
 61a:	af 91       	pop	r26
 61c:	9f 91       	pop	r25
 61e:	8f 91       	pop	r24
 620:	0f 90       	pop	r0
 622:	0f be       	out	0x3f, r0	; 63
 624:	0f 90       	pop	r0
 626:	1f 90       	pop	r1
 628:	18 95       	reti

0000062a <main>:

int main()
{
 62a:	df 93       	push	r29
 62c:	cf 93       	push	r28
 62e:	cd b7       	in	r28, 0x3d	; 61
 630:	de b7       	in	r29, 0x3e	; 62
	cli();
 632:	f8 94       	cli
	DDRD = 0xF3;
 634:	ea e2       	ldi	r30, 0x2A	; 42
 636:	f0 e0       	ldi	r31, 0x00	; 0
 638:	83 ef       	ldi	r24, 0xF3	; 243
 63a:	80 83       	st	Z, r24
	DDRB = 0xFF; // 하위 4비트 활성화
 63c:	e4 e2       	ldi	r30, 0x24	; 36
 63e:	f0 e0       	ldi	r31, 0x00	; 0
 640:	8f ef       	ldi	r24, 0xFF	; 255
 642:	80 83       	st	Z, r24
	DDRC = 0xFF;   
 644:	e7 e2       	ldi	r30, 0x27	; 39
 646:	f0 e0       	ldi	r31, 0x00	; 0
 648:	8f ef       	ldi	r24, 0xFF	; 255
 64a:	80 83       	st	Z, r24
   
	PORTC = 0xFF;
 64c:	e8 e2       	ldi	r30, 0x28	; 40
 64e:	f0 e0       	ldi	r31, 0x00	; 0
 650:	8f ef       	ldi	r24, 0xFF	; 255
 652:	80 83       	st	Z, r24
	PORTD = 0x0C; //PB 2~5이랑 PC0~3 사용 예정
 654:	eb e2       	ldi	r30, 0x2B	; 43
 656:	f0 e0       	ldi	r31, 0x00	; 0
 658:	8c e0       	ldi	r24, 0x0C	; 12
 65a:	80 83       	st	Z, r24
	PORTB = 0xFD;
 65c:	e5 e2       	ldi	r30, 0x25	; 37
 65e:	f0 e0       	ldi	r31, 0x00	; 0
 660:	8d ef       	ldi	r24, 0xFD	; 253
 662:	80 83       	st	Z, r24
	EICRA = 0x0F;
 664:	e9 e6       	ldi	r30, 0x69	; 105
 666:	f0 e0       	ldi	r31, 0x00	; 0
 668:	8f e0       	ldi	r24, 0x0F	; 15
 66a:	80 83       	st	Z, r24
	//Falling Edge Triger
	EIMSK = 0x03;
 66c:	ed e3       	ldi	r30, 0x3D	; 61
 66e:	f0 e0       	ldi	r31, 0x00	; 0
 670:	83 e0       	ldi	r24, 0x03	; 3
 672:	80 83       	st	Z, r24
	//interrupt enable
	EIFR |=0x03;
 674:	ac e3       	ldi	r26, 0x3C	; 60
 676:	b0 e0       	ldi	r27, 0x00	; 0
 678:	ec e3       	ldi	r30, 0x3C	; 60
 67a:	f0 e0       	ldi	r31, 0x00	; 0
 67c:	80 81       	ld	r24, Z
 67e:	83 60       	ori	r24, 0x03	; 3
 680:	8c 93       	st	X, r24

	sei();
 682:	78 94       	sei
	while(1)
	{
		LED_SHIFT();
 684:	0e 94 c6 01 	call	0x38c	; 0x38c <LED_SHIFT>
		flag = PIND;
 688:	e9 e2       	ldi	r30, 0x29	; 41
 68a:	f0 e0       	ldi	r31, 0x00	; 0
 68c:	80 81       	ld	r24, Z
 68e:	88 2f       	mov	r24, r24
 690:	90 e0       	ldi	r25, 0x00	; 0
 692:	90 93 23 01 	sts	0x0123, r25
 696:	80 93 22 01 	sts	0x0122, r24
		if(flag ==  0x08)
 69a:	80 91 22 01 	lds	r24, 0x0122
 69e:	90 91 23 01 	lds	r25, 0x0123
 6a2:	88 30       	cpi	r24, 0x08	; 8
 6a4:	91 05       	cpc	r25, r1
 6a6:	21 f4       	brne	.+8      	; 0x6b0 <main+0x86>
		{
			on_offdown = OFF;
 6a8:	10 92 1f 01 	sts	0x011F, r1
 6ac:	10 92 1e 01 	sts	0x011E, r1
		}
		if(flag == 0x0C && on_offdown == OFF && on_offup == ON)
 6b0:	80 91 22 01 	lds	r24, 0x0122
 6b4:	90 91 23 01 	lds	r25, 0x0123
 6b8:	8c 30       	cpi	r24, 0x0C	; 12
 6ba:	91 05       	cpc	r25, r1
 6bc:	d1 f4       	brne	.+52     	; 0x6f2 <main+0xc8>
 6be:	80 91 1e 01 	lds	r24, 0x011E
 6c2:	90 91 1f 01 	lds	r25, 0x011F
 6c6:	00 97       	sbiw	r24, 0x00	; 0
 6c8:	a1 f4       	brne	.+40     	; 0x6f2 <main+0xc8>
 6ca:	80 91 1c 01 	lds	r24, 0x011C
 6ce:	90 91 1d 01 	lds	r25, 0x011D
 6d2:	81 30       	cpi	r24, 0x01	; 1
 6d4:	91 05       	cpc	r25, r1
 6d6:	69 f4       	brne	.+26     	; 0x6f2 <main+0xc8>
		{
			--note;
 6d8:	80 91 20 01 	lds	r24, 0x0120
 6dc:	90 91 21 01 	lds	r25, 0x0121
 6e0:	01 97       	sbiw	r24, 0x01	; 1
 6e2:	90 93 21 01 	sts	0x0121, r25
 6e6:	80 93 20 01 	sts	0x0120, r24
			on_offup = OFF;
 6ea:	10 92 1d 01 	sts	0x011D, r1
 6ee:	10 92 1c 01 	sts	0x011C, r1
		}
		if(on_offup == ON && flag == 0x0C && on_offdown == ON)
 6f2:	80 91 1c 01 	lds	r24, 0x011C
 6f6:	90 91 1d 01 	lds	r25, 0x011D
 6fa:	81 30       	cpi	r24, 0x01	; 1
 6fc:	91 05       	cpc	r25, r1
 6fe:	09 f0       	breq	.+2      	; 0x702 <main+0xd8>
 700:	8e c0       	rjmp	.+284    	; 0x81e <main+0x1f4>
 702:	80 91 22 01 	lds	r24, 0x0122
 706:	90 91 23 01 	lds	r25, 0x0123
 70a:	8c 30       	cpi	r24, 0x0C	; 12
 70c:	91 05       	cpc	r25, r1
 70e:	09 f0       	breq	.+2      	; 0x712 <main+0xe8>
 710:	86 c0       	rjmp	.+268    	; 0x81e <main+0x1f4>
 712:	80 91 1e 01 	lds	r24, 0x011E
 716:	90 91 1f 01 	lds	r25, 0x011F
 71a:	81 30       	cpi	r24, 0x01	; 1
 71c:	91 05       	cpc	r25, r1
 71e:	09 f0       	breq	.+2      	; 0x722 <main+0xf8>
 720:	7e c0       	rjmp	.+252    	; 0x81e <main+0x1f4>
		{
			++note;
 722:	80 91 20 01 	lds	r24, 0x0120
 726:	90 91 21 01 	lds	r25, 0x0121
 72a:	01 96       	adiw	r24, 0x01	; 1
 72c:	90 93 21 01 	sts	0x0121, r25
 730:	80 93 20 01 	sts	0x0120, r24
			while(1)
			{
				if(on_offup == ON)
 734:	80 91 1c 01 	lds	r24, 0x011C
 738:	90 91 1d 01 	lds	r25, 0x011D
 73c:	81 30       	cpi	r24, 0x01	; 1
 73e:	91 05       	cpc	r25, r1
 740:	41 f5       	brne	.+80     	; 0x792 <main+0x168>
				{
					on_offdown = OFF;
 742:	10 92 1f 01 	sts	0x011F, r1
 746:	10 92 1e 01 	sts	0x011E, r1
					LED_SHIFT();
 74a:	0e 94 c6 01 	call	0x38c	; 0x38c <LED_SHIFT>
					play(note);
 74e:	80 91 20 01 	lds	r24, 0x0120
 752:	90 91 21 01 	lds	r25, 0x0121
 756:	0e 94 94 00 	call	0x128	; 0x128 <play>
					flag = PIND;
 75a:	e9 e2       	ldi	r30, 0x29	; 41
 75c:	f0 e0       	ldi	r31, 0x00	; 0
 75e:	80 81       	ld	r24, Z
 760:	88 2f       	mov	r24, r24
 762:	90 e0       	ldi	r25, 0x00	; 0
 764:	90 93 23 01 	sts	0x0123, r25
 768:	80 93 22 01 	sts	0x0122, r24
					if(flag == 0x0C)
 76c:	80 91 22 01 	lds	r24, 0x0122
 770:	90 91 23 01 	lds	r25, 0x0123
 774:	8c 30       	cpi	r24, 0x0C	; 12
 776:	91 05       	cpc	r25, r1
 778:	61 f4       	brne	.+24     	; 0x792 <main+0x168>
					{
						on_offdown = OFF;
 77a:	10 92 1f 01 	sts	0x011F, r1
 77e:	10 92 1e 01 	sts	0x011E, r1
						LED_SHIFT();
 782:	0e 94 c6 01 	call	0x38c	; 0x38c <LED_SHIFT>
						play(note);
 786:	80 91 20 01 	lds	r24, 0x0120
 78a:	90 91 21 01 	lds	r25, 0x0121
 78e:	0e 94 94 00 	call	0x128	; 0x128 <play>
					}
				}
				if(on_offdown == ON)
 792:	80 91 1e 01 	lds	r24, 0x011E
 796:	90 91 1f 01 	lds	r25, 0x011F
 79a:	81 30       	cpi	r24, 0x01	; 1
 79c:	91 05       	cpc	r25, r1
 79e:	79 f5       	brne	.+94     	; 0x7fe <main+0x1d4>
				{	
					on_offup = OFF;
 7a0:	10 92 1d 01 	sts	0x011D, r1
 7a4:	10 92 1c 01 	sts	0x011C, r1
					LED_SHIFT();
 7a8:	0e 94 c6 01 	call	0x38c	; 0x38c <LED_SHIFT>
					play(note);
 7ac:	80 91 20 01 	lds	r24, 0x0120
 7b0:	90 91 21 01 	lds	r25, 0x0121
 7b4:	0e 94 94 00 	call	0x128	; 0x128 <play>
					flag = PIND;
 7b8:	e9 e2       	ldi	r30, 0x29	; 41
 7ba:	f0 e0       	ldi	r31, 0x00	; 0
 7bc:	80 81       	ld	r24, Z
 7be:	88 2f       	mov	r24, r24
 7c0:	90 e0       	ldi	r25, 0x00	; 0
 7c2:	90 93 23 01 	sts	0x0123, r25
 7c6:	80 93 22 01 	sts	0x0122, r24
					if(flag == 0x0C)
 7ca:	80 91 22 01 	lds	r24, 0x0122
 7ce:	90 91 23 01 	lds	r25, 0x0123
 7d2:	8c 30       	cpi	r24, 0x0C	; 12
 7d4:	91 05       	cpc	r25, r1
 7d6:	99 f4       	brne	.+38     	; 0x7fe <main+0x1d4>
					{
						--note;
 7d8:	80 91 20 01 	lds	r24, 0x0120
 7dc:	90 91 21 01 	lds	r25, 0x0121
 7e0:	01 97       	sbiw	r24, 0x01	; 1
 7e2:	90 93 21 01 	sts	0x0121, r25
 7e6:	80 93 20 01 	sts	0x0120, r24
						LED_SHIFT();
 7ea:	0e 94 c6 01 	call	0x38c	; 0x38c <LED_SHIFT>
						on_offup = OFF;
 7ee:	10 92 1d 01 	sts	0x011D, r1
 7f2:	10 92 1c 01 	sts	0x011C, r1
						on_offdown = OFF;
 7f6:	10 92 1f 01 	sts	0x011F, r1
 7fa:	10 92 1e 01 	sts	0x011E, r1
					}
				}
				if(on_offup == OFF && on_offdown == OFF)
 7fe:	80 91 1c 01 	lds	r24, 0x011C
 802:	90 91 1d 01 	lds	r25, 0x011D
 806:	00 97       	sbiw	r24, 0x00	; 0
 808:	09 f0       	breq	.+2      	; 0x80c <main+0x1e2>
 80a:	94 cf       	rjmp	.-216    	; 0x734 <main+0x10a>
 80c:	80 91 1e 01 	lds	r24, 0x011E
 810:	90 91 1f 01 	lds	r25, 0x011F
 814:	00 97       	sbiw	r24, 0x00	; 0
 816:	09 f0       	breq	.+2      	; 0x81a <main+0x1f0>
 818:	8d cf       	rjmp	.-230    	; 0x734 <main+0x10a>
				{
					stop();
 81a:	0e 94 98 01 	call	0x330	; 0x330 <stop>
					break;
				}
			}
		}
		stop();
 81e:	0e 94 98 01 	call	0x330	; 0x330 <stop>
 822:	30 cf       	rjmp	.-416    	; 0x684 <main+0x5a>

00000824 <exit>:
 824:	f8 94       	cli
 826:	0c 94 8b 07 	jmp	0xf16	; 0xf16 <_exit>

0000082a <__subsf3>:
 82a:	50 58       	subi	r21, 0x80	; 128

0000082c <__addsf3>:
 82c:	bb 27       	eor	r27, r27
 82e:	aa 27       	eor	r26, r26
 830:	0e d0       	rcall	.+28     	; 0x84e <__addsf3x>
 832:	48 c1       	rjmp	.+656    	; 0xac4 <__fp_round>
 834:	39 d1       	rcall	.+626    	; 0xaa8 <__fp_pscA>
 836:	30 f0       	brcs	.+12     	; 0x844 <__addsf3+0x18>
 838:	3e d1       	rcall	.+636    	; 0xab6 <__fp_pscB>
 83a:	20 f0       	brcs	.+8      	; 0x844 <__addsf3+0x18>
 83c:	31 f4       	brne	.+12     	; 0x84a <__addsf3+0x1e>
 83e:	9f 3f       	cpi	r25, 0xFF	; 255
 840:	11 f4       	brne	.+4      	; 0x846 <__addsf3+0x1a>
 842:	1e f4       	brtc	.+6      	; 0x84a <__addsf3+0x1e>
 844:	2e c1       	rjmp	.+604    	; 0xaa2 <__fp_nan>
 846:	0e f4       	brtc	.+2      	; 0x84a <__addsf3+0x1e>
 848:	e0 95       	com	r30
 84a:	e7 fb       	bst	r30, 7
 84c:	24 c1       	rjmp	.+584    	; 0xa96 <__fp_inf>

0000084e <__addsf3x>:
 84e:	e9 2f       	mov	r30, r25
 850:	4a d1       	rcall	.+660    	; 0xae6 <__fp_split3>
 852:	80 f3       	brcs	.-32     	; 0x834 <__addsf3+0x8>
 854:	ba 17       	cp	r27, r26
 856:	62 07       	cpc	r22, r18
 858:	73 07       	cpc	r23, r19
 85a:	84 07       	cpc	r24, r20
 85c:	95 07       	cpc	r25, r21
 85e:	18 f0       	brcs	.+6      	; 0x866 <__addsf3x+0x18>
 860:	71 f4       	brne	.+28     	; 0x87e <__addsf3x+0x30>
 862:	9e f5       	brtc	.+102    	; 0x8ca <__addsf3x+0x7c>
 864:	62 c1       	rjmp	.+708    	; 0xb2a <__fp_zero>
 866:	0e f4       	brtc	.+2      	; 0x86a <__addsf3x+0x1c>
 868:	e0 95       	com	r30
 86a:	0b 2e       	mov	r0, r27
 86c:	ba 2f       	mov	r27, r26
 86e:	a0 2d       	mov	r26, r0
 870:	0b 01       	movw	r0, r22
 872:	b9 01       	movw	r22, r18
 874:	90 01       	movw	r18, r0
 876:	0c 01       	movw	r0, r24
 878:	ca 01       	movw	r24, r20
 87a:	a0 01       	movw	r20, r0
 87c:	11 24       	eor	r1, r1
 87e:	ff 27       	eor	r31, r31
 880:	59 1b       	sub	r21, r25
 882:	99 f0       	breq	.+38     	; 0x8aa <__addsf3x+0x5c>
 884:	59 3f       	cpi	r21, 0xF9	; 249
 886:	50 f4       	brcc	.+20     	; 0x89c <__addsf3x+0x4e>
 888:	50 3e       	cpi	r21, 0xE0	; 224
 88a:	68 f1       	brcs	.+90     	; 0x8e6 <__addsf3x+0x98>
 88c:	1a 16       	cp	r1, r26
 88e:	f0 40       	sbci	r31, 0x00	; 0
 890:	a2 2f       	mov	r26, r18
 892:	23 2f       	mov	r18, r19
 894:	34 2f       	mov	r19, r20
 896:	44 27       	eor	r20, r20
 898:	58 5f       	subi	r21, 0xF8	; 248
 89a:	f3 cf       	rjmp	.-26     	; 0x882 <__addsf3x+0x34>
 89c:	46 95       	lsr	r20
 89e:	37 95       	ror	r19
 8a0:	27 95       	ror	r18
 8a2:	a7 95       	ror	r26
 8a4:	f0 40       	sbci	r31, 0x00	; 0
 8a6:	53 95       	inc	r21
 8a8:	c9 f7       	brne	.-14     	; 0x89c <__addsf3x+0x4e>
 8aa:	7e f4       	brtc	.+30     	; 0x8ca <__addsf3x+0x7c>
 8ac:	1f 16       	cp	r1, r31
 8ae:	ba 0b       	sbc	r27, r26
 8b0:	62 0b       	sbc	r22, r18
 8b2:	73 0b       	sbc	r23, r19
 8b4:	84 0b       	sbc	r24, r20
 8b6:	ba f0       	brmi	.+46     	; 0x8e6 <__addsf3x+0x98>
 8b8:	91 50       	subi	r25, 0x01	; 1
 8ba:	a1 f0       	breq	.+40     	; 0x8e4 <__addsf3x+0x96>
 8bc:	ff 0f       	add	r31, r31
 8be:	bb 1f       	adc	r27, r27
 8c0:	66 1f       	adc	r22, r22
 8c2:	77 1f       	adc	r23, r23
 8c4:	88 1f       	adc	r24, r24
 8c6:	c2 f7       	brpl	.-16     	; 0x8b8 <__addsf3x+0x6a>
 8c8:	0e c0       	rjmp	.+28     	; 0x8e6 <__addsf3x+0x98>
 8ca:	ba 0f       	add	r27, r26
 8cc:	62 1f       	adc	r22, r18
 8ce:	73 1f       	adc	r23, r19
 8d0:	84 1f       	adc	r24, r20
 8d2:	48 f4       	brcc	.+18     	; 0x8e6 <__addsf3x+0x98>
 8d4:	87 95       	ror	r24
 8d6:	77 95       	ror	r23
 8d8:	67 95       	ror	r22
 8da:	b7 95       	ror	r27
 8dc:	f7 95       	ror	r31
 8de:	9e 3f       	cpi	r25, 0xFE	; 254
 8e0:	08 f0       	brcs	.+2      	; 0x8e4 <__addsf3x+0x96>
 8e2:	b3 cf       	rjmp	.-154    	; 0x84a <__addsf3+0x1e>
 8e4:	93 95       	inc	r25
 8e6:	88 0f       	add	r24, r24
 8e8:	08 f0       	brcs	.+2      	; 0x8ec <__addsf3x+0x9e>
 8ea:	99 27       	eor	r25, r25
 8ec:	ee 0f       	add	r30, r30
 8ee:	97 95       	ror	r25
 8f0:	87 95       	ror	r24
 8f2:	08 95       	ret

000008f4 <__divsf3>:
 8f4:	0c d0       	rcall	.+24     	; 0x90e <__divsf3x>
 8f6:	e6 c0       	rjmp	.+460    	; 0xac4 <__fp_round>
 8f8:	de d0       	rcall	.+444    	; 0xab6 <__fp_pscB>
 8fa:	40 f0       	brcs	.+16     	; 0x90c <__stack+0xd>
 8fc:	d5 d0       	rcall	.+426    	; 0xaa8 <__fp_pscA>
 8fe:	30 f0       	brcs	.+12     	; 0x90c <__stack+0xd>
 900:	21 f4       	brne	.+8      	; 0x90a <__stack+0xb>
 902:	5f 3f       	cpi	r21, 0xFF	; 255
 904:	19 f0       	breq	.+6      	; 0x90c <__stack+0xd>
 906:	c7 c0       	rjmp	.+398    	; 0xa96 <__fp_inf>
 908:	51 11       	cpse	r21, r1
 90a:	10 c1       	rjmp	.+544    	; 0xb2c <__fp_szero>
 90c:	ca c0       	rjmp	.+404    	; 0xaa2 <__fp_nan>

0000090e <__divsf3x>:
 90e:	eb d0       	rcall	.+470    	; 0xae6 <__fp_split3>
 910:	98 f3       	brcs	.-26     	; 0x8f8 <__divsf3+0x4>

00000912 <__divsf3_pse>:
 912:	99 23       	and	r25, r25
 914:	c9 f3       	breq	.-14     	; 0x908 <__stack+0x9>
 916:	55 23       	and	r21, r21
 918:	b1 f3       	breq	.-20     	; 0x906 <__stack+0x7>
 91a:	95 1b       	sub	r25, r21
 91c:	55 0b       	sbc	r21, r21
 91e:	bb 27       	eor	r27, r27
 920:	aa 27       	eor	r26, r26
 922:	62 17       	cp	r22, r18
 924:	73 07       	cpc	r23, r19
 926:	84 07       	cpc	r24, r20
 928:	38 f0       	brcs	.+14     	; 0x938 <__divsf3_pse+0x26>
 92a:	9f 5f       	subi	r25, 0xFF	; 255
 92c:	5f 4f       	sbci	r21, 0xFF	; 255
 92e:	22 0f       	add	r18, r18
 930:	33 1f       	adc	r19, r19
 932:	44 1f       	adc	r20, r20
 934:	aa 1f       	adc	r26, r26
 936:	a9 f3       	breq	.-22     	; 0x922 <__divsf3_pse+0x10>
 938:	33 d0       	rcall	.+102    	; 0x9a0 <__divsf3_pse+0x8e>
 93a:	0e 2e       	mov	r0, r30
 93c:	3a f0       	brmi	.+14     	; 0x94c <__divsf3_pse+0x3a>
 93e:	e0 e8       	ldi	r30, 0x80	; 128
 940:	30 d0       	rcall	.+96     	; 0x9a2 <__divsf3_pse+0x90>
 942:	91 50       	subi	r25, 0x01	; 1
 944:	50 40       	sbci	r21, 0x00	; 0
 946:	e6 95       	lsr	r30
 948:	00 1c       	adc	r0, r0
 94a:	ca f7       	brpl	.-14     	; 0x93e <__divsf3_pse+0x2c>
 94c:	29 d0       	rcall	.+82     	; 0x9a0 <__divsf3_pse+0x8e>
 94e:	fe 2f       	mov	r31, r30
 950:	27 d0       	rcall	.+78     	; 0x9a0 <__divsf3_pse+0x8e>
 952:	66 0f       	add	r22, r22
 954:	77 1f       	adc	r23, r23
 956:	88 1f       	adc	r24, r24
 958:	bb 1f       	adc	r27, r27
 95a:	26 17       	cp	r18, r22
 95c:	37 07       	cpc	r19, r23
 95e:	48 07       	cpc	r20, r24
 960:	ab 07       	cpc	r26, r27
 962:	b0 e8       	ldi	r27, 0x80	; 128
 964:	09 f0       	breq	.+2      	; 0x968 <__divsf3_pse+0x56>
 966:	bb 0b       	sbc	r27, r27
 968:	80 2d       	mov	r24, r0
 96a:	bf 01       	movw	r22, r30
 96c:	ff 27       	eor	r31, r31
 96e:	93 58       	subi	r25, 0x83	; 131
 970:	5f 4f       	sbci	r21, 0xFF	; 255
 972:	2a f0       	brmi	.+10     	; 0x97e <__divsf3_pse+0x6c>
 974:	9e 3f       	cpi	r25, 0xFE	; 254
 976:	51 05       	cpc	r21, r1
 978:	68 f0       	brcs	.+26     	; 0x994 <__divsf3_pse+0x82>
 97a:	8d c0       	rjmp	.+282    	; 0xa96 <__fp_inf>
 97c:	d7 c0       	rjmp	.+430    	; 0xb2c <__fp_szero>
 97e:	5f 3f       	cpi	r21, 0xFF	; 255
 980:	ec f3       	brlt	.-6      	; 0x97c <__divsf3_pse+0x6a>
 982:	98 3e       	cpi	r25, 0xE8	; 232
 984:	dc f3       	brlt	.-10     	; 0x97c <__divsf3_pse+0x6a>
 986:	86 95       	lsr	r24
 988:	77 95       	ror	r23
 98a:	67 95       	ror	r22
 98c:	b7 95       	ror	r27
 98e:	f7 95       	ror	r31
 990:	9f 5f       	subi	r25, 0xFF	; 255
 992:	c9 f7       	brne	.-14     	; 0x986 <__divsf3_pse+0x74>
 994:	88 0f       	add	r24, r24
 996:	91 1d       	adc	r25, r1
 998:	96 95       	lsr	r25
 99a:	87 95       	ror	r24
 99c:	97 f9       	bld	r25, 7
 99e:	08 95       	ret
 9a0:	e1 e0       	ldi	r30, 0x01	; 1
 9a2:	66 0f       	add	r22, r22
 9a4:	77 1f       	adc	r23, r23
 9a6:	88 1f       	adc	r24, r24
 9a8:	bb 1f       	adc	r27, r27
 9aa:	62 17       	cp	r22, r18
 9ac:	73 07       	cpc	r23, r19
 9ae:	84 07       	cpc	r24, r20
 9b0:	ba 07       	cpc	r27, r26
 9b2:	20 f0       	brcs	.+8      	; 0x9bc <__divsf3_pse+0xaa>
 9b4:	62 1b       	sub	r22, r18
 9b6:	73 0b       	sbc	r23, r19
 9b8:	84 0b       	sbc	r24, r20
 9ba:	ba 0b       	sbc	r27, r26
 9bc:	ee 1f       	adc	r30, r30
 9be:	88 f7       	brcc	.-30     	; 0x9a2 <__divsf3_pse+0x90>
 9c0:	e0 95       	com	r30
 9c2:	08 95       	ret

000009c4 <__fixunssfsi>:
 9c4:	98 d0       	rcall	.+304    	; 0xaf6 <__fp_splitA>
 9c6:	88 f0       	brcs	.+34     	; 0x9ea <__fixunssfsi+0x26>
 9c8:	9f 57       	subi	r25, 0x7F	; 127
 9ca:	90 f0       	brcs	.+36     	; 0x9f0 <__fixunssfsi+0x2c>
 9cc:	b9 2f       	mov	r27, r25
 9ce:	99 27       	eor	r25, r25
 9d0:	b7 51       	subi	r27, 0x17	; 23
 9d2:	a0 f0       	brcs	.+40     	; 0x9fc <__fixunssfsi+0x38>
 9d4:	d1 f0       	breq	.+52     	; 0xa0a <__fixunssfsi+0x46>
 9d6:	66 0f       	add	r22, r22
 9d8:	77 1f       	adc	r23, r23
 9da:	88 1f       	adc	r24, r24
 9dc:	99 1f       	adc	r25, r25
 9de:	1a f0       	brmi	.+6      	; 0x9e6 <__fixunssfsi+0x22>
 9e0:	ba 95       	dec	r27
 9e2:	c9 f7       	brne	.-14     	; 0x9d6 <__fixunssfsi+0x12>
 9e4:	12 c0       	rjmp	.+36     	; 0xa0a <__fixunssfsi+0x46>
 9e6:	b1 30       	cpi	r27, 0x01	; 1
 9e8:	81 f0       	breq	.+32     	; 0xa0a <__fixunssfsi+0x46>
 9ea:	9f d0       	rcall	.+318    	; 0xb2a <__fp_zero>
 9ec:	b1 e0       	ldi	r27, 0x01	; 1
 9ee:	08 95       	ret
 9f0:	9c c0       	rjmp	.+312    	; 0xb2a <__fp_zero>
 9f2:	67 2f       	mov	r22, r23
 9f4:	78 2f       	mov	r23, r24
 9f6:	88 27       	eor	r24, r24
 9f8:	b8 5f       	subi	r27, 0xF8	; 248
 9fa:	39 f0       	breq	.+14     	; 0xa0a <__fixunssfsi+0x46>
 9fc:	b9 3f       	cpi	r27, 0xF9	; 249
 9fe:	cc f3       	brlt	.-14     	; 0x9f2 <__fixunssfsi+0x2e>
 a00:	86 95       	lsr	r24
 a02:	77 95       	ror	r23
 a04:	67 95       	ror	r22
 a06:	b3 95       	inc	r27
 a08:	d9 f7       	brne	.-10     	; 0xa00 <__fixunssfsi+0x3c>
 a0a:	3e f4       	brtc	.+14     	; 0xa1a <__fixunssfsi+0x56>
 a0c:	90 95       	com	r25
 a0e:	80 95       	com	r24
 a10:	70 95       	com	r23
 a12:	61 95       	neg	r22
 a14:	7f 4f       	sbci	r23, 0xFF	; 255
 a16:	8f 4f       	sbci	r24, 0xFF	; 255
 a18:	9f 4f       	sbci	r25, 0xFF	; 255
 a1a:	08 95       	ret

00000a1c <__floatunsisf>:
 a1c:	e8 94       	clt
 a1e:	09 c0       	rjmp	.+18     	; 0xa32 <__floatsisf+0x12>

00000a20 <__floatsisf>:
 a20:	97 fb       	bst	r25, 7
 a22:	3e f4       	brtc	.+14     	; 0xa32 <__floatsisf+0x12>
 a24:	90 95       	com	r25
 a26:	80 95       	com	r24
 a28:	70 95       	com	r23
 a2a:	61 95       	neg	r22
 a2c:	7f 4f       	sbci	r23, 0xFF	; 255
 a2e:	8f 4f       	sbci	r24, 0xFF	; 255
 a30:	9f 4f       	sbci	r25, 0xFF	; 255
 a32:	99 23       	and	r25, r25
 a34:	a9 f0       	breq	.+42     	; 0xa60 <__floatsisf+0x40>
 a36:	f9 2f       	mov	r31, r25
 a38:	96 e9       	ldi	r25, 0x96	; 150
 a3a:	bb 27       	eor	r27, r27
 a3c:	93 95       	inc	r25
 a3e:	f6 95       	lsr	r31
 a40:	87 95       	ror	r24
 a42:	77 95       	ror	r23
 a44:	67 95       	ror	r22
 a46:	b7 95       	ror	r27
 a48:	f1 11       	cpse	r31, r1
 a4a:	f8 cf       	rjmp	.-16     	; 0xa3c <__floatsisf+0x1c>
 a4c:	fa f4       	brpl	.+62     	; 0xa8c <__floatsisf+0x6c>
 a4e:	bb 0f       	add	r27, r27
 a50:	11 f4       	brne	.+4      	; 0xa56 <__floatsisf+0x36>
 a52:	60 ff       	sbrs	r22, 0
 a54:	1b c0       	rjmp	.+54     	; 0xa8c <__floatsisf+0x6c>
 a56:	6f 5f       	subi	r22, 0xFF	; 255
 a58:	7f 4f       	sbci	r23, 0xFF	; 255
 a5a:	8f 4f       	sbci	r24, 0xFF	; 255
 a5c:	9f 4f       	sbci	r25, 0xFF	; 255
 a5e:	16 c0       	rjmp	.+44     	; 0xa8c <__floatsisf+0x6c>
 a60:	88 23       	and	r24, r24
 a62:	11 f0       	breq	.+4      	; 0xa68 <__floatsisf+0x48>
 a64:	96 e9       	ldi	r25, 0x96	; 150
 a66:	11 c0       	rjmp	.+34     	; 0xa8a <__floatsisf+0x6a>
 a68:	77 23       	and	r23, r23
 a6a:	21 f0       	breq	.+8      	; 0xa74 <__floatsisf+0x54>
 a6c:	9e e8       	ldi	r25, 0x8E	; 142
 a6e:	87 2f       	mov	r24, r23
 a70:	76 2f       	mov	r23, r22
 a72:	05 c0       	rjmp	.+10     	; 0xa7e <__floatsisf+0x5e>
 a74:	66 23       	and	r22, r22
 a76:	71 f0       	breq	.+28     	; 0xa94 <__floatsisf+0x74>
 a78:	96 e8       	ldi	r25, 0x86	; 134
 a7a:	86 2f       	mov	r24, r22
 a7c:	70 e0       	ldi	r23, 0x00	; 0
 a7e:	60 e0       	ldi	r22, 0x00	; 0
 a80:	2a f0       	brmi	.+10     	; 0xa8c <__floatsisf+0x6c>
 a82:	9a 95       	dec	r25
 a84:	66 0f       	add	r22, r22
 a86:	77 1f       	adc	r23, r23
 a88:	88 1f       	adc	r24, r24
 a8a:	da f7       	brpl	.-10     	; 0xa82 <__floatsisf+0x62>
 a8c:	88 0f       	add	r24, r24
 a8e:	96 95       	lsr	r25
 a90:	87 95       	ror	r24
 a92:	97 f9       	bld	r25, 7
 a94:	08 95       	ret

00000a96 <__fp_inf>:
 a96:	97 f9       	bld	r25, 7
 a98:	9f 67       	ori	r25, 0x7F	; 127
 a9a:	80 e8       	ldi	r24, 0x80	; 128
 a9c:	70 e0       	ldi	r23, 0x00	; 0
 a9e:	60 e0       	ldi	r22, 0x00	; 0
 aa0:	08 95       	ret

00000aa2 <__fp_nan>:
 aa2:	9f ef       	ldi	r25, 0xFF	; 255
 aa4:	80 ec       	ldi	r24, 0xC0	; 192
 aa6:	08 95       	ret

00000aa8 <__fp_pscA>:
 aa8:	00 24       	eor	r0, r0
 aaa:	0a 94       	dec	r0
 aac:	16 16       	cp	r1, r22
 aae:	17 06       	cpc	r1, r23
 ab0:	18 06       	cpc	r1, r24
 ab2:	09 06       	cpc	r0, r25
 ab4:	08 95       	ret

00000ab6 <__fp_pscB>:
 ab6:	00 24       	eor	r0, r0
 ab8:	0a 94       	dec	r0
 aba:	12 16       	cp	r1, r18
 abc:	13 06       	cpc	r1, r19
 abe:	14 06       	cpc	r1, r20
 ac0:	05 06       	cpc	r0, r21
 ac2:	08 95       	ret

00000ac4 <__fp_round>:
 ac4:	09 2e       	mov	r0, r25
 ac6:	03 94       	inc	r0
 ac8:	00 0c       	add	r0, r0
 aca:	11 f4       	brne	.+4      	; 0xad0 <__fp_round+0xc>
 acc:	88 23       	and	r24, r24
 ace:	52 f0       	brmi	.+20     	; 0xae4 <__fp_round+0x20>
 ad0:	bb 0f       	add	r27, r27
 ad2:	40 f4       	brcc	.+16     	; 0xae4 <__fp_round+0x20>
 ad4:	bf 2b       	or	r27, r31
 ad6:	11 f4       	brne	.+4      	; 0xadc <__fp_round+0x18>
 ad8:	60 ff       	sbrs	r22, 0
 ada:	04 c0       	rjmp	.+8      	; 0xae4 <__fp_round+0x20>
 adc:	6f 5f       	subi	r22, 0xFF	; 255
 ade:	7f 4f       	sbci	r23, 0xFF	; 255
 ae0:	8f 4f       	sbci	r24, 0xFF	; 255
 ae2:	9f 4f       	sbci	r25, 0xFF	; 255
 ae4:	08 95       	ret

00000ae6 <__fp_split3>:
 ae6:	57 fd       	sbrc	r21, 7
 ae8:	90 58       	subi	r25, 0x80	; 128
 aea:	44 0f       	add	r20, r20
 aec:	55 1f       	adc	r21, r21
 aee:	59 f0       	breq	.+22     	; 0xb06 <__fp_splitA+0x10>
 af0:	5f 3f       	cpi	r21, 0xFF	; 255
 af2:	71 f0       	breq	.+28     	; 0xb10 <__fp_splitA+0x1a>
 af4:	47 95       	ror	r20

00000af6 <__fp_splitA>:
 af6:	88 0f       	add	r24, r24
 af8:	97 fb       	bst	r25, 7
 afa:	99 1f       	adc	r25, r25
 afc:	61 f0       	breq	.+24     	; 0xb16 <__fp_splitA+0x20>
 afe:	9f 3f       	cpi	r25, 0xFF	; 255
 b00:	79 f0       	breq	.+30     	; 0xb20 <__fp_splitA+0x2a>
 b02:	87 95       	ror	r24
 b04:	08 95       	ret
 b06:	12 16       	cp	r1, r18
 b08:	13 06       	cpc	r1, r19
 b0a:	14 06       	cpc	r1, r20
 b0c:	55 1f       	adc	r21, r21
 b0e:	f2 cf       	rjmp	.-28     	; 0xaf4 <__fp_split3+0xe>
 b10:	46 95       	lsr	r20
 b12:	f1 df       	rcall	.-30     	; 0xaf6 <__fp_splitA>
 b14:	08 c0       	rjmp	.+16     	; 0xb26 <__fp_splitA+0x30>
 b16:	16 16       	cp	r1, r22
 b18:	17 06       	cpc	r1, r23
 b1a:	18 06       	cpc	r1, r24
 b1c:	99 1f       	adc	r25, r25
 b1e:	f1 cf       	rjmp	.-30     	; 0xb02 <__fp_splitA+0xc>
 b20:	86 95       	lsr	r24
 b22:	71 05       	cpc	r23, r1
 b24:	61 05       	cpc	r22, r1
 b26:	08 94       	sec
 b28:	08 95       	ret

00000b2a <__fp_zero>:
 b2a:	e8 94       	clt

00000b2c <__fp_szero>:
 b2c:	bb 27       	eor	r27, r27
 b2e:	66 27       	eor	r22, r22
 b30:	77 27       	eor	r23, r23
 b32:	cb 01       	movw	r24, r22
 b34:	97 f9       	bld	r25, 7
 b36:	08 95       	ret

00000b38 <__mulsf3>:
 b38:	0b d0       	rcall	.+22     	; 0xb50 <__mulsf3x>
 b3a:	c4 cf       	rjmp	.-120    	; 0xac4 <__fp_round>
 b3c:	b5 df       	rcall	.-150    	; 0xaa8 <__fp_pscA>
 b3e:	28 f0       	brcs	.+10     	; 0xb4a <__mulsf3+0x12>
 b40:	ba df       	rcall	.-140    	; 0xab6 <__fp_pscB>
 b42:	18 f0       	brcs	.+6      	; 0xb4a <__mulsf3+0x12>
 b44:	95 23       	and	r25, r21
 b46:	09 f0       	breq	.+2      	; 0xb4a <__mulsf3+0x12>
 b48:	a6 cf       	rjmp	.-180    	; 0xa96 <__fp_inf>
 b4a:	ab cf       	rjmp	.-170    	; 0xaa2 <__fp_nan>
 b4c:	11 24       	eor	r1, r1
 b4e:	ee cf       	rjmp	.-36     	; 0xb2c <__fp_szero>

00000b50 <__mulsf3x>:
 b50:	ca df       	rcall	.-108    	; 0xae6 <__fp_split3>
 b52:	a0 f3       	brcs	.-24     	; 0xb3c <__mulsf3+0x4>

00000b54 <__mulsf3_pse>:
 b54:	95 9f       	mul	r25, r21
 b56:	d1 f3       	breq	.-12     	; 0xb4c <__mulsf3+0x14>
 b58:	95 0f       	add	r25, r21
 b5a:	50 e0       	ldi	r21, 0x00	; 0
 b5c:	55 1f       	adc	r21, r21
 b5e:	62 9f       	mul	r22, r18
 b60:	f0 01       	movw	r30, r0
 b62:	72 9f       	mul	r23, r18
 b64:	bb 27       	eor	r27, r27
 b66:	f0 0d       	add	r31, r0
 b68:	b1 1d       	adc	r27, r1
 b6a:	63 9f       	mul	r22, r19
 b6c:	aa 27       	eor	r26, r26
 b6e:	f0 0d       	add	r31, r0
 b70:	b1 1d       	adc	r27, r1
 b72:	aa 1f       	adc	r26, r26
 b74:	64 9f       	mul	r22, r20
 b76:	66 27       	eor	r22, r22
 b78:	b0 0d       	add	r27, r0
 b7a:	a1 1d       	adc	r26, r1
 b7c:	66 1f       	adc	r22, r22
 b7e:	82 9f       	mul	r24, r18
 b80:	22 27       	eor	r18, r18
 b82:	b0 0d       	add	r27, r0
 b84:	a1 1d       	adc	r26, r1
 b86:	62 1f       	adc	r22, r18
 b88:	73 9f       	mul	r23, r19
 b8a:	b0 0d       	add	r27, r0
 b8c:	a1 1d       	adc	r26, r1
 b8e:	62 1f       	adc	r22, r18
 b90:	83 9f       	mul	r24, r19
 b92:	a0 0d       	add	r26, r0
 b94:	61 1d       	adc	r22, r1
 b96:	22 1f       	adc	r18, r18
 b98:	74 9f       	mul	r23, r20
 b9a:	33 27       	eor	r19, r19
 b9c:	a0 0d       	add	r26, r0
 b9e:	61 1d       	adc	r22, r1
 ba0:	23 1f       	adc	r18, r19
 ba2:	84 9f       	mul	r24, r20
 ba4:	60 0d       	add	r22, r0
 ba6:	21 1d       	adc	r18, r1
 ba8:	82 2f       	mov	r24, r18
 baa:	76 2f       	mov	r23, r22
 bac:	6a 2f       	mov	r22, r26
 bae:	11 24       	eor	r1, r1
 bb0:	9f 57       	subi	r25, 0x7F	; 127
 bb2:	50 40       	sbci	r21, 0x00	; 0
 bb4:	8a f0       	brmi	.+34     	; 0xbd8 <__mulsf3_pse+0x84>
 bb6:	e1 f0       	breq	.+56     	; 0xbf0 <__mulsf3_pse+0x9c>
 bb8:	88 23       	and	r24, r24
 bba:	4a f0       	brmi	.+18     	; 0xbce <__mulsf3_pse+0x7a>
 bbc:	ee 0f       	add	r30, r30
 bbe:	ff 1f       	adc	r31, r31
 bc0:	bb 1f       	adc	r27, r27
 bc2:	66 1f       	adc	r22, r22
 bc4:	77 1f       	adc	r23, r23
 bc6:	88 1f       	adc	r24, r24
 bc8:	91 50       	subi	r25, 0x01	; 1
 bca:	50 40       	sbci	r21, 0x00	; 0
 bcc:	a9 f7       	brne	.-22     	; 0xbb8 <__mulsf3_pse+0x64>
 bce:	9e 3f       	cpi	r25, 0xFE	; 254
 bd0:	51 05       	cpc	r21, r1
 bd2:	70 f0       	brcs	.+28     	; 0xbf0 <__mulsf3_pse+0x9c>
 bd4:	60 cf       	rjmp	.-320    	; 0xa96 <__fp_inf>
 bd6:	aa cf       	rjmp	.-172    	; 0xb2c <__fp_szero>
 bd8:	5f 3f       	cpi	r21, 0xFF	; 255
 bda:	ec f3       	brlt	.-6      	; 0xbd6 <__mulsf3_pse+0x82>
 bdc:	98 3e       	cpi	r25, 0xE8	; 232
 bde:	dc f3       	brlt	.-10     	; 0xbd6 <__mulsf3_pse+0x82>
 be0:	86 95       	lsr	r24
 be2:	77 95       	ror	r23
 be4:	67 95       	ror	r22
 be6:	b7 95       	ror	r27
 be8:	f7 95       	ror	r31
 bea:	e7 95       	ror	r30
 bec:	9f 5f       	subi	r25, 0xFF	; 255
 bee:	c1 f7       	brne	.-16     	; 0xbe0 <__mulsf3_pse+0x8c>
 bf0:	fe 2b       	or	r31, r30
 bf2:	88 0f       	add	r24, r24
 bf4:	91 1d       	adc	r25, r1
 bf6:	96 95       	lsr	r25
 bf8:	87 95       	ror	r24
 bfa:	97 f9       	bld	r25, 7
 bfc:	08 95       	ret

00000bfe <pow>:
 bfe:	fa 01       	movw	r30, r20
 c00:	ee 0f       	add	r30, r30
 c02:	ff 1f       	adc	r31, r31
 c04:	30 96       	adiw	r30, 0x00	; 0
 c06:	21 05       	cpc	r18, r1
 c08:	31 05       	cpc	r19, r1
 c0a:	99 f1       	breq	.+102    	; 0xc72 <pow+0x74>
 c0c:	61 15       	cp	r22, r1
 c0e:	71 05       	cpc	r23, r1
 c10:	61 f4       	brne	.+24     	; 0xc2a <pow+0x2c>
 c12:	80 38       	cpi	r24, 0x80	; 128
 c14:	bf e3       	ldi	r27, 0x3F	; 63
 c16:	9b 07       	cpc	r25, r27
 c18:	49 f1       	breq	.+82     	; 0xc6c <pow+0x6e>
 c1a:	68 94       	set
 c1c:	90 38       	cpi	r25, 0x80	; 128
 c1e:	81 05       	cpc	r24, r1
 c20:	61 f0       	breq	.+24     	; 0xc3a <pow+0x3c>
 c22:	80 38       	cpi	r24, 0x80	; 128
 c24:	bf ef       	ldi	r27, 0xFF	; 255
 c26:	9b 07       	cpc	r25, r27
 c28:	41 f0       	breq	.+16     	; 0xc3a <pow+0x3c>
 c2a:	99 23       	and	r25, r25
 c2c:	42 f5       	brpl	.+80     	; 0xc7e <pow+0x80>
 c2e:	ff 3f       	cpi	r31, 0xFF	; 255
 c30:	e1 05       	cpc	r30, r1
 c32:	31 05       	cpc	r19, r1
 c34:	21 05       	cpc	r18, r1
 c36:	11 f1       	breq	.+68     	; 0xc7c <pow+0x7e>
 c38:	e8 94       	clt
 c3a:	08 94       	sec
 c3c:	e7 95       	ror	r30
 c3e:	d9 01       	movw	r26, r18
 c40:	aa 23       	and	r26, r26
 c42:	29 f4       	brne	.+10     	; 0xc4e <pow+0x50>
 c44:	ab 2f       	mov	r26, r27
 c46:	be 2f       	mov	r27, r30
 c48:	f8 5f       	subi	r31, 0xF8	; 248
 c4a:	d0 f3       	brcs	.-12     	; 0xc40 <pow+0x42>
 c4c:	10 c0       	rjmp	.+32     	; 0xc6e <pow+0x70>
 c4e:	ff 5f       	subi	r31, 0xFF	; 255
 c50:	70 f4       	brcc	.+28     	; 0xc6e <pow+0x70>
 c52:	a6 95       	lsr	r26
 c54:	e0 f7       	brcc	.-8      	; 0xc4e <pow+0x50>
 c56:	f7 39       	cpi	r31, 0x97	; 151
 c58:	50 f0       	brcs	.+20     	; 0xc6e <pow+0x70>
 c5a:	19 f0       	breq	.+6      	; 0xc62 <pow+0x64>
 c5c:	ff 3a       	cpi	r31, 0xAF	; 175
 c5e:	38 f4       	brcc	.+14     	; 0xc6e <pow+0x70>
 c60:	9f 77       	andi	r25, 0x7F	; 127
 c62:	9f 93       	push	r25
 c64:	0c d0       	rcall	.+24     	; 0xc7e <pow+0x80>
 c66:	0f 90       	pop	r0
 c68:	07 fc       	sbrc	r0, 7
 c6a:	90 58       	subi	r25, 0x80	; 128
 c6c:	08 95       	ret
 c6e:	3e f0       	brts	.+14     	; 0xc7e <pow+0x80>
 c70:	18 cf       	rjmp	.-464    	; 0xaa2 <__fp_nan>
 c72:	60 e0       	ldi	r22, 0x00	; 0
 c74:	70 e0       	ldi	r23, 0x00	; 0
 c76:	80 e8       	ldi	r24, 0x80	; 128
 c78:	9f e3       	ldi	r25, 0x3F	; 63
 c7a:	08 95       	ret
 c7c:	4f e7       	ldi	r20, 0x7F	; 127
 c7e:	9f 77       	andi	r25, 0x7F	; 127
 c80:	5f 93       	push	r21
 c82:	4f 93       	push	r20
 c84:	3f 93       	push	r19
 c86:	2f 93       	push	r18
 c88:	9e d0       	rcall	.+316    	; 0xdc6 <log>
 c8a:	2f 91       	pop	r18
 c8c:	3f 91       	pop	r19
 c8e:	4f 91       	pop	r20
 c90:	5f 91       	pop	r21
 c92:	52 df       	rcall	.-348    	; 0xb38 <__mulsf3>
 c94:	05 c0       	rjmp	.+10     	; 0xca0 <exp>
 c96:	19 f4       	brne	.+6      	; 0xc9e <pow+0xa0>
 c98:	0e f0       	brts	.+2      	; 0xc9c <pow+0x9e>
 c9a:	fd ce       	rjmp	.-518    	; 0xa96 <__fp_inf>
 c9c:	46 cf       	rjmp	.-372    	; 0xb2a <__fp_zero>
 c9e:	01 cf       	rjmp	.-510    	; 0xaa2 <__fp_nan>

00000ca0 <exp>:
 ca0:	2a df       	rcall	.-428    	; 0xaf6 <__fp_splitA>
 ca2:	c8 f3       	brcs	.-14     	; 0xc96 <pow+0x98>
 ca4:	96 38       	cpi	r25, 0x86	; 134
 ca6:	c0 f7       	brcc	.-16     	; 0xc98 <pow+0x9a>
 ca8:	07 f8       	bld	r0, 7
 caa:	0f 92       	push	r0
 cac:	e8 94       	clt
 cae:	2b e3       	ldi	r18, 0x3B	; 59
 cb0:	3a ea       	ldi	r19, 0xAA	; 170
 cb2:	48 eb       	ldi	r20, 0xB8	; 184
 cb4:	5f e7       	ldi	r21, 0x7F	; 127
 cb6:	4e df       	rcall	.-356    	; 0xb54 <__mulsf3_pse>
 cb8:	0f 92       	push	r0
 cba:	0f 92       	push	r0
 cbc:	0f 92       	push	r0
 cbe:	4d b7       	in	r20, 0x3d	; 61
 cc0:	5e b7       	in	r21, 0x3e	; 62
 cc2:	0f 92       	push	r0
 cc4:	c0 d0       	rcall	.+384    	; 0xe46 <modf>
 cc6:	e8 e6       	ldi	r30, 0x68	; 104
 cc8:	f0 e0       	ldi	r31, 0x00	; 0
 cca:	16 d0       	rcall	.+44     	; 0xcf8 <__fp_powser>
 ccc:	4f 91       	pop	r20
 cce:	5f 91       	pop	r21
 cd0:	ef 91       	pop	r30
 cd2:	ff 91       	pop	r31
 cd4:	e5 95       	asr	r30
 cd6:	ee 1f       	adc	r30, r30
 cd8:	ff 1f       	adc	r31, r31
 cda:	49 f0       	breq	.+18     	; 0xcee <exp+0x4e>
 cdc:	fe 57       	subi	r31, 0x7E	; 126
 cde:	e0 68       	ori	r30, 0x80	; 128
 ce0:	44 27       	eor	r20, r20
 ce2:	ee 0f       	add	r30, r30
 ce4:	44 1f       	adc	r20, r20
 ce6:	fa 95       	dec	r31
 ce8:	e1 f7       	brne	.-8      	; 0xce2 <exp+0x42>
 cea:	41 95       	neg	r20
 cec:	55 0b       	sbc	r21, r21
 cee:	32 d0       	rcall	.+100    	; 0xd54 <ldexp>
 cf0:	0f 90       	pop	r0
 cf2:	07 fe       	sbrs	r0, 7
 cf4:	26 c0       	rjmp	.+76     	; 0xd42 <inverse>
 cf6:	08 95       	ret

00000cf8 <__fp_powser>:
 cf8:	df 93       	push	r29
 cfa:	cf 93       	push	r28
 cfc:	1f 93       	push	r17
 cfe:	0f 93       	push	r16
 d00:	ff 92       	push	r15
 d02:	ef 92       	push	r14
 d04:	df 92       	push	r13
 d06:	7b 01       	movw	r14, r22
 d08:	8c 01       	movw	r16, r24
 d0a:	68 94       	set
 d0c:	05 c0       	rjmp	.+10     	; 0xd18 <__fp_powser+0x20>
 d0e:	da 2e       	mov	r13, r26
 d10:	ef 01       	movw	r28, r30
 d12:	1e df       	rcall	.-452    	; 0xb50 <__mulsf3x>
 d14:	fe 01       	movw	r30, r28
 d16:	e8 94       	clt
 d18:	a5 91       	lpm	r26, Z+
 d1a:	25 91       	lpm	r18, Z+
 d1c:	35 91       	lpm	r19, Z+
 d1e:	45 91       	lpm	r20, Z+
 d20:	55 91       	lpm	r21, Z+
 d22:	ae f3       	brts	.-22     	; 0xd0e <__fp_powser+0x16>
 d24:	ef 01       	movw	r28, r30
 d26:	93 dd       	rcall	.-1242   	; 0x84e <__addsf3x>
 d28:	fe 01       	movw	r30, r28
 d2a:	97 01       	movw	r18, r14
 d2c:	a8 01       	movw	r20, r16
 d2e:	da 94       	dec	r13
 d30:	79 f7       	brne	.-34     	; 0xd10 <__fp_powser+0x18>
 d32:	df 90       	pop	r13
 d34:	ef 90       	pop	r14
 d36:	ff 90       	pop	r15
 d38:	0f 91       	pop	r16
 d3a:	1f 91       	pop	r17
 d3c:	cf 91       	pop	r28
 d3e:	df 91       	pop	r29
 d40:	08 95       	ret

00000d42 <inverse>:
 d42:	9b 01       	movw	r18, r22
 d44:	ac 01       	movw	r20, r24
 d46:	60 e0       	ldi	r22, 0x00	; 0
 d48:	70 e0       	ldi	r23, 0x00	; 0
 d4a:	80 e8       	ldi	r24, 0x80	; 128
 d4c:	9f e3       	ldi	r25, 0x3F	; 63
 d4e:	d2 cd       	rjmp	.-1116   	; 0x8f4 <__divsf3>
 d50:	a2 ce       	rjmp	.-700    	; 0xa96 <__fp_inf>
 d52:	ac c0       	rjmp	.+344    	; 0xeac <__fp_mpack>

00000d54 <ldexp>:
 d54:	d0 de       	rcall	.-608    	; 0xaf6 <__fp_splitA>
 d56:	e8 f3       	brcs	.-6      	; 0xd52 <inverse+0x10>
 d58:	99 23       	and	r25, r25
 d5a:	d9 f3       	breq	.-10     	; 0xd52 <inverse+0x10>
 d5c:	94 0f       	add	r25, r20
 d5e:	51 1d       	adc	r21, r1
 d60:	bb f3       	brvs	.-18     	; 0xd50 <inverse+0xe>
 d62:	91 50       	subi	r25, 0x01	; 1
 d64:	50 40       	sbci	r21, 0x00	; 0
 d66:	94 f0       	brlt	.+36     	; 0xd8c <ldexp+0x38>
 d68:	59 f0       	breq	.+22     	; 0xd80 <ldexp+0x2c>
 d6a:	88 23       	and	r24, r24
 d6c:	32 f0       	brmi	.+12     	; 0xd7a <ldexp+0x26>
 d6e:	66 0f       	add	r22, r22
 d70:	77 1f       	adc	r23, r23
 d72:	88 1f       	adc	r24, r24
 d74:	91 50       	subi	r25, 0x01	; 1
 d76:	50 40       	sbci	r21, 0x00	; 0
 d78:	c1 f7       	brne	.-16     	; 0xd6a <ldexp+0x16>
 d7a:	9e 3f       	cpi	r25, 0xFE	; 254
 d7c:	51 05       	cpc	r21, r1
 d7e:	44 f7       	brge	.-48     	; 0xd50 <inverse+0xe>
 d80:	88 0f       	add	r24, r24
 d82:	91 1d       	adc	r25, r1
 d84:	96 95       	lsr	r25
 d86:	87 95       	ror	r24
 d88:	97 f9       	bld	r25, 7
 d8a:	08 95       	ret
 d8c:	5f 3f       	cpi	r21, 0xFF	; 255
 d8e:	ac f0       	brlt	.+42     	; 0xdba <ldexp+0x66>
 d90:	98 3e       	cpi	r25, 0xE8	; 232
 d92:	9c f0       	brlt	.+38     	; 0xdba <ldexp+0x66>
 d94:	bb 27       	eor	r27, r27
 d96:	86 95       	lsr	r24
 d98:	77 95       	ror	r23
 d9a:	67 95       	ror	r22
 d9c:	b7 95       	ror	r27
 d9e:	08 f4       	brcc	.+2      	; 0xda2 <ldexp+0x4e>
 da0:	b1 60       	ori	r27, 0x01	; 1
 da2:	93 95       	inc	r25
 da4:	c1 f7       	brne	.-16     	; 0xd96 <ldexp+0x42>
 da6:	bb 0f       	add	r27, r27
 da8:	58 f7       	brcc	.-42     	; 0xd80 <ldexp+0x2c>
 daa:	11 f4       	brne	.+4      	; 0xdb0 <ldexp+0x5c>
 dac:	60 ff       	sbrs	r22, 0
 dae:	e8 cf       	rjmp	.-48     	; 0xd80 <ldexp+0x2c>
 db0:	6f 5f       	subi	r22, 0xFF	; 255
 db2:	7f 4f       	sbci	r23, 0xFF	; 255
 db4:	8f 4f       	sbci	r24, 0xFF	; 255
 db6:	9f 4f       	sbci	r25, 0xFF	; 255
 db8:	e3 cf       	rjmp	.-58     	; 0xd80 <ldexp+0x2c>
 dba:	b8 ce       	rjmp	.-656    	; 0xb2c <__fp_szero>
 dbc:	0e f0       	brts	.+2      	; 0xdc0 <ldexp+0x6c>
 dbe:	76 c0       	rjmp	.+236    	; 0xeac <__fp_mpack>
 dc0:	70 ce       	rjmp	.-800    	; 0xaa2 <__fp_nan>
 dc2:	68 94       	set
 dc4:	68 ce       	rjmp	.-816    	; 0xa96 <__fp_inf>

00000dc6 <log>:
 dc6:	97 de       	rcall	.-722    	; 0xaf6 <__fp_splitA>
 dc8:	c8 f3       	brcs	.-14     	; 0xdbc <ldexp+0x68>
 dca:	99 23       	and	r25, r25
 dcc:	d1 f3       	breq	.-12     	; 0xdc2 <ldexp+0x6e>
 dce:	c6 f3       	brts	.-16     	; 0xdc0 <ldexp+0x6c>
 dd0:	df 93       	push	r29
 dd2:	cf 93       	push	r28
 dd4:	1f 93       	push	r17
 dd6:	0f 93       	push	r16
 dd8:	ff 92       	push	r15
 dda:	c9 2f       	mov	r28, r25
 ddc:	dd 27       	eor	r29, r29
 dde:	88 23       	and	r24, r24
 de0:	2a f0       	brmi	.+10     	; 0xdec <log+0x26>
 de2:	21 97       	sbiw	r28, 0x01	; 1
 de4:	66 0f       	add	r22, r22
 de6:	77 1f       	adc	r23, r23
 de8:	88 1f       	adc	r24, r24
 dea:	da f7       	brpl	.-10     	; 0xde2 <log+0x1c>
 dec:	20 e0       	ldi	r18, 0x00	; 0
 dee:	30 e0       	ldi	r19, 0x00	; 0
 df0:	40 e8       	ldi	r20, 0x80	; 128
 df2:	5f eb       	ldi	r21, 0xBF	; 191
 df4:	9f e3       	ldi	r25, 0x3F	; 63
 df6:	88 39       	cpi	r24, 0x98	; 152
 df8:	20 f0       	brcs	.+8      	; 0xe02 <log+0x3c>
 dfa:	80 3e       	cpi	r24, 0xE0	; 224
 dfc:	30 f0       	brcs	.+12     	; 0xe0a <log+0x44>
 dfe:	21 96       	adiw	r28, 0x01	; 1
 e00:	8f 77       	andi	r24, 0x7F	; 127
 e02:	14 dd       	rcall	.-1496   	; 0x82c <__addsf3>
 e04:	e0 e9       	ldi	r30, 0x90	; 144
 e06:	f0 e0       	ldi	r31, 0x00	; 0
 e08:	03 c0       	rjmp	.+6      	; 0xe10 <log+0x4a>
 e0a:	10 dd       	rcall	.-1504   	; 0x82c <__addsf3>
 e0c:	ed eb       	ldi	r30, 0xBD	; 189
 e0e:	f0 e0       	ldi	r31, 0x00	; 0
 e10:	73 df       	rcall	.-282    	; 0xcf8 <__fp_powser>
 e12:	8b 01       	movw	r16, r22
 e14:	be 01       	movw	r22, r28
 e16:	ec 01       	movw	r28, r24
 e18:	fb 2e       	mov	r15, r27
 e1a:	6f 57       	subi	r22, 0x7F	; 127
 e1c:	71 09       	sbc	r23, r1
 e1e:	75 95       	asr	r23
 e20:	77 1f       	adc	r23, r23
 e22:	88 0b       	sbc	r24, r24
 e24:	99 0b       	sbc	r25, r25
 e26:	fc dd       	rcall	.-1032   	; 0xa20 <__floatsisf>
 e28:	28 e1       	ldi	r18, 0x18	; 24
 e2a:	32 e7       	ldi	r19, 0x72	; 114
 e2c:	41 e3       	ldi	r20, 0x31	; 49
 e2e:	5f e3       	ldi	r21, 0x3F	; 63
 e30:	8f de       	rcall	.-738    	; 0xb50 <__mulsf3x>
 e32:	af 2d       	mov	r26, r15
 e34:	98 01       	movw	r18, r16
 e36:	ae 01       	movw	r20, r28
 e38:	ff 90       	pop	r15
 e3a:	0f 91       	pop	r16
 e3c:	1f 91       	pop	r17
 e3e:	cf 91       	pop	r28
 e40:	df 91       	pop	r29
 e42:	05 dd       	rcall	.-1526   	; 0x84e <__addsf3x>
 e44:	3f ce       	rjmp	.-898    	; 0xac4 <__fp_round>

00000e46 <modf>:
 e46:	fa 01       	movw	r30, r20
 e48:	dc 01       	movw	r26, r24
 e4a:	aa 0f       	add	r26, r26
 e4c:	bb 1f       	adc	r27, r27
 e4e:	9b 01       	movw	r18, r22
 e50:	ac 01       	movw	r20, r24
 e52:	bf 57       	subi	r27, 0x7F	; 127
 e54:	28 f4       	brcc	.+10     	; 0xe60 <modf+0x1a>
 e56:	22 27       	eor	r18, r18
 e58:	33 27       	eor	r19, r19
 e5a:	44 27       	eor	r20, r20
 e5c:	50 78       	andi	r21, 0x80	; 128
 e5e:	1f c0       	rjmp	.+62     	; 0xe9e <modf+0x58>
 e60:	b7 51       	subi	r27, 0x17	; 23
 e62:	88 f4       	brcc	.+34     	; 0xe86 <modf+0x40>
 e64:	ab 2f       	mov	r26, r27
 e66:	00 24       	eor	r0, r0
 e68:	46 95       	lsr	r20
 e6a:	37 95       	ror	r19
 e6c:	27 95       	ror	r18
 e6e:	01 1c       	adc	r0, r1
 e70:	a3 95       	inc	r26
 e72:	d2 f3       	brmi	.-12     	; 0xe68 <modf+0x22>
 e74:	00 20       	and	r0, r0
 e76:	69 f0       	breq	.+26     	; 0xe92 <modf+0x4c>
 e78:	22 0f       	add	r18, r18
 e7a:	33 1f       	adc	r19, r19
 e7c:	44 1f       	adc	r20, r20
 e7e:	b3 95       	inc	r27
 e80:	da f3       	brmi	.-10     	; 0xe78 <modf+0x32>
 e82:	0d d0       	rcall	.+26     	; 0xe9e <modf+0x58>
 e84:	d2 cc       	rjmp	.-1628   	; 0x82a <__subsf3>
 e86:	61 30       	cpi	r22, 0x01	; 1
 e88:	71 05       	cpc	r23, r1
 e8a:	a0 e8       	ldi	r26, 0x80	; 128
 e8c:	8a 07       	cpc	r24, r26
 e8e:	b9 46       	sbci	r27, 0x69	; 105
 e90:	30 f4       	brcc	.+12     	; 0xe9e <modf+0x58>
 e92:	9b 01       	movw	r18, r22
 e94:	ac 01       	movw	r20, r24
 e96:	66 27       	eor	r22, r22
 e98:	77 27       	eor	r23, r23
 e9a:	88 27       	eor	r24, r24
 e9c:	90 78       	andi	r25, 0x80	; 128
 e9e:	30 96       	adiw	r30, 0x00	; 0
 ea0:	21 f0       	breq	.+8      	; 0xeaa <modf+0x64>
 ea2:	20 83       	st	Z, r18
 ea4:	31 83       	std	Z+1, r19	; 0x01
 ea6:	42 83       	std	Z+2, r20	; 0x02
 ea8:	53 83       	std	Z+3, r21	; 0x03
 eaa:	08 95       	ret

00000eac <__fp_mpack>:
 eac:	9f 3f       	cpi	r25, 0xFF	; 255
 eae:	31 f0       	breq	.+12     	; 0xebc <__fp_mpack_finite+0xc>

00000eb0 <__fp_mpack_finite>:
 eb0:	91 50       	subi	r25, 0x01	; 1
 eb2:	20 f4       	brcc	.+8      	; 0xebc <__fp_mpack_finite+0xc>
 eb4:	87 95       	ror	r24
 eb6:	77 95       	ror	r23
 eb8:	67 95       	ror	r22
 eba:	b7 95       	ror	r27
 ebc:	88 0f       	add	r24, r24
 ebe:	91 1d       	adc	r25, r1
 ec0:	96 95       	lsr	r25
 ec2:	87 95       	ror	r24
 ec4:	97 f9       	bld	r25, 7
 ec6:	08 95       	ret

00000ec8 <__divmodhi4>:
 ec8:	97 fb       	bst	r25, 7
 eca:	09 2e       	mov	r0, r25
 ecc:	07 26       	eor	r0, r23
 ece:	0a d0       	rcall	.+20     	; 0xee4 <__divmodhi4_neg1>
 ed0:	77 fd       	sbrc	r23, 7
 ed2:	04 d0       	rcall	.+8      	; 0xedc <__divmodhi4_neg2>
 ed4:	0c d0       	rcall	.+24     	; 0xeee <__udivmodhi4>
 ed6:	06 d0       	rcall	.+12     	; 0xee4 <__divmodhi4_neg1>
 ed8:	00 20       	and	r0, r0
 eda:	1a f4       	brpl	.+6      	; 0xee2 <__divmodhi4_exit>

00000edc <__divmodhi4_neg2>:
 edc:	70 95       	com	r23
 ede:	61 95       	neg	r22
 ee0:	7f 4f       	sbci	r23, 0xFF	; 255

00000ee2 <__divmodhi4_exit>:
 ee2:	08 95       	ret

00000ee4 <__divmodhi4_neg1>:
 ee4:	f6 f7       	brtc	.-4      	; 0xee2 <__divmodhi4_exit>
 ee6:	90 95       	com	r25
 ee8:	81 95       	neg	r24
 eea:	9f 4f       	sbci	r25, 0xFF	; 255
 eec:	08 95       	ret

00000eee <__udivmodhi4>:
 eee:	aa 1b       	sub	r26, r26
 ef0:	bb 1b       	sub	r27, r27
 ef2:	51 e1       	ldi	r21, 0x11	; 17
 ef4:	07 c0       	rjmp	.+14     	; 0xf04 <__udivmodhi4_ep>

00000ef6 <__udivmodhi4_loop>:
 ef6:	aa 1f       	adc	r26, r26
 ef8:	bb 1f       	adc	r27, r27
 efa:	a6 17       	cp	r26, r22
 efc:	b7 07       	cpc	r27, r23
 efe:	10 f0       	brcs	.+4      	; 0xf04 <__udivmodhi4_ep>
 f00:	a6 1b       	sub	r26, r22
 f02:	b7 0b       	sbc	r27, r23

00000f04 <__udivmodhi4_ep>:
 f04:	88 1f       	adc	r24, r24
 f06:	99 1f       	adc	r25, r25
 f08:	5a 95       	dec	r21
 f0a:	a9 f7       	brne	.-22     	; 0xef6 <__udivmodhi4_loop>
 f0c:	80 95       	com	r24
 f0e:	90 95       	com	r25
 f10:	bc 01       	movw	r22, r24
 f12:	cd 01       	movw	r24, r26
 f14:	08 95       	ret

00000f16 <_exit>:
 f16:	f8 94       	cli

00000f18 <__stop_program>:
 f18:	ff cf       	rjmp	.-2      	; 0xf18 <__stop_program>
